(lp1
(I98110
(lp2
(I98110
F1
tp3
a(I98148
F1
tp4
a(I9708
F0.8214285714285714
tp5
a(I10082
F0.8214285714285714
tp6
a(I10492
F0.8214285714285714
tp7
a(I1587
F0.7931034482758621
tp8
a(I1628
F0.7931034482758621
tp9
a(I1655
F0.7931034482758621
tp10
a(I7036
F0.7931034482758621
tp11
a(I11057
F0.7931034482758621
tp12
a(I14432
F0.7931034482758621
tp13
a(I255
F0.76666666666666672
tp14
a(I18580
F0.76666666666666672
tp15
a(I18591
F0.76666666666666672
tp16
a(I18602
F0.76666666666666672
tp17
a(I18613
F0.76666666666666672
tp18
a(I198
F0.74193548387096775
tp19
a(I301
F0.74193548387096775
tp20
a(I349
F0.74193548387096775
tp21
a(I2040
F0.74193548387096775
tp22
a(I3174
F0.74193548387096775
tp23
a(I3226
F0.74193548387096775
tp24
a(I3278
F0.74193548387096775
tp25
a(I3330
F0.74193548387096775
tp26
a(I6884
F0.74193548387096775
tp27
a(I12357
F0.71875
tp28
a(I12440
F0.71875
tp29
a(I12519
F0.71875
tp30
a(I12600
F0.71875
tp31
a(I19861
F0.71875
tp32
a(I13157
F0.69696969696969702
tp33
a(I25151
F0.67647058823529416
tp34
a(I25180
F0.67647058823529416
tp35
a(I25212
F0.67647058823529416
tp36
a(I25245
F0.67647058823529416
tp37
a(I20796
F0.65714285714285714
tp38
a(I20848
F0.65714285714285714
tp39
a(I20893
F0.65714285714285714
tp40
a(I20945
F0.65714285714285714
tp41
a(I137948
F0.63157894736842102
tp42
a(I138049
F0.63157894736842102
tp43
a(I518
F0.58974358974358976
tp44
a(I5991
F0.51111111111111107
tp45
a(I4158
F0.43396226415094341
tp46
a(I10905
F0.42592592592592593
tp47
a(I56580
F0.42105263157894735
tp48
a(I6180
F0.41818181818181815
tp49
a(I14340
F0.40350877192982454
tp50
a(I14366
F0.40350877192982454
tp51
a(I14374
F0.40350877192982454
tp52
a(I18992
F0.39655172413793105
tp53
a(I20330
F0.39655172413793105
tp54
a(I25639
F0.39655172413793105
tp55
a(I25644
F0.39655172413793105
tp56
a(I25649
F0.39655172413793105
tp57
a(I25654
F0.39655172413793105
tp58
a(I21014
F0.37704918032786883
tp59
a(I5361
F0.37096774193548387
tp60
a(I5477
F0.31506849315068491
tp61
a(I19060
F0.30666666666666664
tp62
a(I1789
F0.29113924050632911
tp63
a(I19838
F0.27710843373493976
tp64
a(I11237
F0.27380952380952384
tp65
a(I1971
F0.25555555555555554
tp66
a(I7106
F0.25274725274725274
tp67
a(I18194
F0.25274725274725274
tp68
a(I17890
F0.25
tp69
a(I11898
F0.24731182795698925
tp70
a(I11915
F0.24731182795698925
tp71
a(I11985
F0.24731182795698925
tp72
a(I12055
F0.24731182795698925
tp73
a(I24159
F0.24468085106382978
tp74
a(I24171
F0.24468085106382978
tp75
a(I18733
F0.21296296296296297
tp76
a(I18766
F0.21296296296296297
tp77
a(I18777
F0.21296296296296297
tp78
a(I18355
F0.17910447761194029
tp79
a(I5122
F0.17829457364341086
tp80
a(I24183
F0.17829457364341086
tp81
a(I10918
F0.16788321167883211
tp82
a(I24231
F0.16083916083916083
tp83
a(I24253
F0.16083916083916083
tp84
a(I121093
F0.16
tp85
a(I41406
F0.14285714285714285
tp86
a(I19999
F0.13793103448275862
tp87
a(I20026
F0.12972972972972974
tp88
a(I18380
F0.12834224598930483
tp89
a(I18319
F0.12121212121212122
tp90
a(I18412
F0.12121212121212122
tp91
a(I19909
F0.10344827586206896
tp92
a(I20055
F0.10344827586206896
tp93
a(I18727
F0.072327044025157231
tp94
a(I5510
F0.045999999999999999
tp95
a(I95316
F0.0060851926977687626
tp96
a(I95335
F0.0060744115413819289
tp97
a(I137428
F0.0060514372163388806
tp98
a(I137477
F0.0060514372163388806
tp99
a(I137398
F0.0059985003749062731
tp100
a(I137447
F0.0059985003749062731
tp101
a(I252278
F0.0041486603284356096
tp102
atp103
a(I98111
(lp104
(I98111
F1
tp105
a(I98149
F0.95412844036697253
tp106
a(I22332
F0.6387096774193548
tp107
a(I127939
F0.50295857988165682
tp108
a(I21844
F0.49122807017543857
tp109
a(I22098
F0.49122807017543857
tp110
a(I23864
F0.49122807017543857
tp111
a(I18380
F0.24472573839662448
tp112
a(I90038
F0.23529411764705882
tp113
a(I131252
F0.23529411764705882
tp114
a(I18319
F0.23387096774193547
tp115
a(I18412
F0.23387096774193547
tp116
a(I22798
F0.21912350597609562
tp117
a(I18355
F0.21608040201005024
tp118
a(I67725
F0.041493775933609957
tp119
a(I40594
F0.037765538945712038
tp120
a(I97409
F0.036981132075471698
tp121
a(I40590
F0.036869826937547028
tp122
a(I40596
F0.036759189797449361
tp123
a(I113094
F0.036596523330283626
tp124
a(I2844
F0.035980991174473863
tp125
a(I69501
F0.033333333333333333
tp126
a(I154574
F0.032894736842105261
tp127
a(I69492
F0.032340862422997947
tp128
a(I11908
F0.03129657228017884
tp129
a(I163665
F0.03117692907248636
tp130
a(I69201
F0.03039288361749444
tp131
a(I243302
F0.030112044817927171
tp132
a(I244267
F0.030112044817927171
tp133
a(I243531
F0.03006993006993007
tp134
a(I248158
F0.029132791327913278
tp135
a(I144104
F0.028429282160625444
tp136
a(I100762
F0.027572293207800941
tp137
a(I200804
F0.027333333333333334
tp138
a(I29078
F0.024691358024691357
tp139
a(I29250
F0.024691358024691357
tp140
a(I113195
F0.024655963302752295
tp141
a(I160085
F0.023617511520737326
tp142
a(I225659
F0.023587223587223587
tp143
a(I168561
F0.023331524688008681
tp144
a(I79246
F0.023186975826344353
tp145
a(I227156
F0.023171987641606592
tp146
a(I126355
F0.022982362373062535
tp147
a(I209494
F0.021454735740450027
tp148
a(I165590
F0.021398747390396659
tp149
a(I173342
F0.021363636363636362
tp150
a(I83855
F0.019931939718035974
tp151
a(I83895
F0.019931939718035974
tp152
a(I83932
F0.019931939718035974
tp153
a(I204169
F0.019533231861998984
tp154
a(I204690
F0.019533231861998984
tp155
a(I203634
F0.019469026548672566
tp156
a(I183680
F0.019372693726937271
tp157
a(I95316
F0.019371069182389938
tp158
a(I95335
F0.019337016574585635
tp159
a(I219539
F0.019332161687170474
tp160
a(I137428
F0.019264448336252189
tp161
a(I137477
F0.019264448336252189
tp162
a(I137398
F0.019097222222222224
tp163
a(I137447
F0.019097222222222224
tp164
a(I29163
F0.018627896410722398
tp165
a(I29132
F0.018610985020426692
tp166
a(I129028
F0.01831174631531934
tp167
a(I155502
F0.01828524989841528
tp168
a(I162383
F0.018234865061998541
tp169
a(I83886
F0.017990495587236931
tp170
a(I79172
F0.017953321364452424
tp171
a(I79954
F0.017953321364452424
tp172
a(I246237
F0.017489711934156379
tp173
a(I1211
F0.017133956386292833
tp174
a(I14179
F0.016877637130801686
tp175
a(I157934
F0.016799999999999999
tp176
a(I79260
F0.016685627607129314
tp177
a(I145051
F0.016240497581202488
tp178
a(I241069
F0.016186340307935254
tp179
a(I146160
F0.015997156061144685
tp180
a(I183664
F0.015572105619498984
tp181
a(I79250
F0.01539039039039039
tp182
a(I206057
F0.013827993254637436
tp183
a(I2120
F0.013818672059319177
tp184
a(I30880
F0.012801365478984425
tp185
a(I225665
F0.012496367335077013
tp186
a(I196601
F0.01236570038516116
tp187
a(I196576
F0.012345679012345678
tp188
a(I196584
F0.012345679012345678
tp189
a(I196592
F0.012345679012345678
tp190
a(I196615
F0.012345679012345678
tp191
a(I38522
F0.012281100750511713
tp192
a(I223671
F0.012050832602979842
tp193
a(I223685
F0.012050832602979842
tp194
a(I223692
F0.012050832602979842
tp195
a(I223700
F0.012050832602979842
tp196
a(I223707
F0.012050832602979842
tp197
a(I223678
F0.012048192771084338
tp198
a(I252279
F0.011575239053850024
tp199
a(I158572
F0.011298132349550381
tp200
a(I97597
F0.01099092812281926
tp201
a(I246598
F0.01082753286929621
tp202
a(I136920
F0.010798593671521849
tp203
a(I252278
F0.0099400171379605828
tp204
atp205
a(I98112
(lp206
(I98112
F1
tp207
a(I98150
F1
tp208
a(I22332
F0.21153846153846154
tp209
a(I127939
F0.21153846153846154
tp210
a(I21844
F0.21019108280254778
tp211
a(I22098
F0.21019108280254778
tp212
a(I23864
F0.21019108280254778
tp213
a(I77954
F0.18018018018018017
tp214
a(I22798
F0.17560975609756097
tp215
a(I168514
F0.10194174757281553
tp216
a(I123324
F0.065217391304347824
tp217
a(I256054
F0.063888888888888884
tp218
a(I256280
F0.063888888888888884
tp219
a(I42566
F0.04791666666666667
tp220
a(I44710
F0.029077117572692796
tp221
a(I116703
F0.029077117572692796
tp222
a(I30867
F0.029003783102143757
tp223
a(I27746
F0.026281208935611037
tp224
a(I131115
F0.025179856115107913
tp225
a(I131139
F0.025179856115107913
tp226
a(I161924
F0.025179856115107913
tp227
a(I161948
F0.025179856115107913
tp228
a(I67725
F0.025109170305676855
tp229
a(I196187
F0.025081788440567066
tp230
a(I163665
F0.019448946515397084
tp231
a(I104061
F0.018996960486322188
tp232
a(I59656
F0.017730496453900711
tp233
a(I213125
F0.017558528428093644
tp234
a(I145437
F0.01753048780487805
tp235
a(I69689
F0.017211703958691909
tp236
a(I92388
F0.017142857142857144
tp237
a(I92935
F0.017142857142857144
tp238
a(I70632
F0.016992353440951572
tp239
a(I133588
F0.016578749058025623
tp240
a(I144271
F0.016475644699140399
tp241
a(I108153
F0.016265912305516265
tp242
a(I2844
F0.015994436717663423
tp243
a(I131461
F0.015525758645024701
tp244
a(I100762
F0.015267175572519083
tp245
a(I168561
F0.014484679665738161
tp246
a(I159005
F0.014058679706601468
tp247
a(I241066
F0.013953488372093023
tp248
a(I113195
F0.013537374926427309
tp249
a(I79505
F0.013071895424836602
tp250
a(I79247
F0.012857977790765635
tp251
a(I79667
F0.012850467289719626
tp252
a(I155787
F0.012442396313364055
tp253
a(I165590
F0.012306046013911182
tp254
a(I83570
F0.012170385395537525
tp255
a(I79064
F0.012147984538928768
tp256
a(I79846
F0.012147984538928768
tp257
a(I34829
F0.012117714945181766
tp258
a(I227157
F0.011972633979475485
tp259
a(I122132
F0.011958997722095672
tp260
a(I27343
F0.011938872970391595
tp261
a(I183616
F0.011911207363291824
tp262
a(I141075
F0.011134676564156946
tp263
a(I141441
F0.011134676564156946
tp264
a(I140870
F0.011116993118051879
tp265
a(I57309
F0.0110062893081761
tp266
a(I224371
F0.010914760914760915
tp267
a(I225964
F0.010914760914760915
tp268
a(I225660
F0.01090909090909091
tp269
a(I156343
F0.010712622263623661
tp270
a(I198063
F0.010712622263623661
tp271
a(I32642
F0.01064322073114299
tp272
a(I117083
F0.01064322073114299
tp273
a(I225706
F0.0096374483708122991
tp274
a(I162383
F0.009626064420584968
tp275
a(I144669
F0.0090909090909090905
tp276
a(I204169
F0.008930849706557796
tp277
a(I204690
F0.008930849706557796
tp278
a(I203634
F0.0089013224821973547
tp279
a(I219539
F0.0088383838383838381
tp280
a(I155502
F0.008677685950413223
tp281
a(I95316
F0.0083459787556904395
tp282
a(I95335
F0.0083312294875031549
tp283
a(I137428
F0.0082997987927565398
tp284
a(I137477
F0.0082997987927565398
tp285
a(I137398
F0.0082273747195213166
tp286
a(I137447
F0.0082273747195213166
tp287
a(I27340
F0.0072833211944646759
tp288
a(I2116
F0.0071326676176890159
tp289
a(I2120
F0.0068422853232979813
tp290
a(I158572
F0.006287843502561714
tp291
a(I38522
F0.0048109965635738834
tp292
a(I223671
F0.0046326935804103242
tp293
a(I223685
F0.0046326935804103242
tp294
a(I223692
F0.0046326935804103242
tp295
a(I223700
F0.0046326935804103242
tp296
a(I223707
F0.0046326935804103242
tp297
a(I223678
F0.0046316718129686815
tp298
a(I97597
F0.0045582047685834501
tp299
a(I30880
F0.0045054709289851962
tp300
a(I252278
F0.0044812133746983795
tp301
a(I196601
F0.004278728606356968
tp302
a(I196576
F0.0042717656631407648
tp303
a(I196584
F0.0042717656631407648
tp304
a(I196592
F0.0042717656631407648
tp305
a(I196615
F0.0042717656631407648
tp306
atp307
a(I98113
(lp308
(I98113
F1
tp309
a(I98151
F1
tp310
a(I66059
F0.17647058823529413
tp311
a(I98114
F0.17647058823529413
tp312
a(I98152
F0.17647058823529413
tp313
a(I21970
F0.16666666666666666
tp314
a(I22220
F0.16666666666666666
tp315
a(I22345
F0.16666666666666666
tp316
a(I22820
F0.16666666666666666
tp317
a(I23990
F0.16666666666666666
tp318
a(I61058
F0.16666666666666666
tp319
a(I21969
F0.14999999999999999
tp320
a(I22219
F0.14999999999999999
tp321
a(I22344
F0.14999999999999999
tp322
a(I23989
F0.14999999999999999
tp323
a(I98149
F0.038461538461538464
tp324
a(I98111
F0.03669724770642202
tp325
a(I90038
F0.029411764705882353
tp326
a(I18355
F0.022388059701492536
tp327
a(I95378
F0.022058823529411766
tp328
a(I95388
F0.022058823529411766
tp329
a(I95396
F0.022058823529411766
tp330
a(I95406
F0.022058823529411766
tp331
a(I106362
F0.022058823529411766
tp332
a(I22853
F0.021897810218978103
tp333
a(I22332
F0.020547945205479451
tp334
a(I21844
F0.020408163265306121
tp335
a(I22098
F0.020408163265306121
tp336
a(I23864
F0.020408163265306121
tp337
a(I98127
F0.019607843137254902
tp338
a(I98165
F0.019607843137254902
tp339
a(I21983
F0.01948051948051948
tp340
a(I22233
F0.01948051948051948
tp341
a(I22358
F0.01948051948051948
tp342
a(I24003
F0.01948051948051948
tp343
a(I18403
F0.018404907975460124
tp344
a(I18343
F0.017857142857142856
tp345
a(I18436
F0.017857142857142856
tp346
a(I22843
F0.017751479289940829
tp347
a(I18380
F0.016042780748663103
tp348
a(I18319
F0.015151515151515152
tp349
a(I18412
F0.015151515151515152
tp350
a(I127218
F0.01507537688442211
tp351
a(I127258
F0.01507537688442211
tp352
a(I127308
F0.01507537688442211
tp353
a(I127348
F0.01507537688442211
tp354
a(I22826
F0.013761467889908258
tp355
a(I42598
F0.013333333333333334
tp356
a(I127181
F0.013333333333333334
tp357
a(I42567
F0.013215859030837005
tp358
a(I22835
F0.011538461538461539
tp359
a(I66067
F0.011538461538461539
tp360
a(I18335
F0.011494252873563218
tp361
a(I18369
F0.011494252873563218
tp362
a(I18395
F0.011494252873563218
tp363
a(I18428
F0.011494252873563218
tp364
a(I90048
F0.011494252873563218
tp365
a(I98121
F0.011278195488721804
tp366
a(I98159
F0.011278195488721804
tp367
a(I84346
F0.010526315789473684
tp368
a(I84354
F0.010526315789473684
tp369
a(I84361
F0.010526315789473684
tp370
a(I84369
F0.010526315789473684
tp371
a(I100286
F0.010526315789473684
tp372
a(I21977
F0.01048951048951049
tp373
a(I22227
F0.01048951048951049
tp374
a(I22352
F0.01048951048951049
tp375
a(I23997
F0.01048951048951049
tp376
a(I22231
F0.008356545961002786
tp377
a(I18399
F0.007874015748031496
tp378
a(I21981
F0.0076923076923076927
tp379
a(I24001
F0.0076923076923076927
tp380
a(I18339
F0.0071258907363420431
tp381
a(I18432
F0.0071258907363420431
tp382
a(I96037
F0.0070754716981132077
tp383
a(I27464
F0.007058823529411765
tp384
a(I42566
F0.0065217391304347823
tp385
a(I25115
F0.0048859934853420191
tp386
a(I12471
F0.0042796005706134095
tp387
a(I12553
F0.0038363171355498722
tp388
a(I22139
F0.0034207525655644243
tp389
a(I12392
F0.0033860045146726862
tp390
a(I12635
F0.0033860045146726862
tp391
a(I22894
F0.0033821871476888386
tp392
a(I21889
F0.003246753246753247
tp393
a(I23909
F0.003246753246753247
tp394
a(I118033
F0.0028625954198473282
tp395
a(I27384
F0.0028571428571428571
tp396
a(I40592
F0.002819548872180451
tp397
a(I78241
F0.0025466893039049238
tp398
a(I78325
F0.002542372881355932
tp399
a(I78420
F0.002542372881355932
tp400
a(I40594
F0.002477291494632535
tp401
a(I97409
F0.0023696682464454978
tp402
a(I40590
F0.0023622047244094488
tp403
a(I40596
F0.0023547880690737832
tp404
a(I78138
F0.002329192546583851
tp405
a(I78525
F0.002329192546583851
tp406
a(I15784
F0.0022813688212927757
tp407
a(I17146
F0.0022813688212927757
tp408
atp409
a(I98114
(lp410
(I98114
F1
tp411
a(I98152
F1
tp412
a(I21970
F0.73684210526315785
tp413
a(I22220
F0.73684210526315785
tp414
a(I22345
F0.73684210526315785
tp415
a(I23990
F0.73684210526315785
tp416
a(I127951
F0.73684210526315785
tp417
a(I22344
F0.66666666666666663
tp418
a(I22820
F0.65000000000000002
tp419
a(I21163
F0.61904761904761907
tp420
a(I21969
F0.59090909090909094
tp421
a(I22219
F0.59090909090909094
tp422
a(I22642
F0.59090909090909094
tp423
a(I23215
F0.59090909090909094
tp424
a(I23650
F0.59090909090909094
tp425
a(I23989
F0.59090909090909094
tp426
a(I28236
F0.59090909090909094
tp427
a(I22803
F0.54166666666666663
tp428
a(I19432
F0.1326530612244898
tp429
a(I19542
F0.1326530612244898
tp430
a(I19652
F0.1326530612244898
tp431
a(I18355
F0.095588235294117641
tp432
a(I30443
F0.086092715231788075
tp433
a(I18380
F0.068783068783068779
tp434
a(I18319
F0.065000000000000002
tp435
a(I18412
F0.065000000000000002
tp436
a(I25115
F0.022764227642276424
tp437
a(I16828
F0.020030816640986132
tp438
a(I15466
F0.019969278033794162
tp439
a(I112629
F0.015891032917139614
tp440
a(I92881
F0.01560758082497213
tp441
a(I79262
F0.015521064301552107
tp442
a(I14188
F0.014462809917355372
tp443
a(I3938
F0.014285714285714285
tp444
a(I174754
F0.013698630136986301
tp445
a(I118033
F0.01334604385128694
tp446
a(I242901
F0.013333333333333334
tp447
a(I27384
F0.013320647002854425
tp448
a(I19387
F0.013278855975485188
tp449
a(I11913
F0.012711864406779662
tp450
a(I6985
F0.012633624878522837
tp451
a(I69206
F0.012264922322158627
tp452
a(I97409
F0.011049723756906077
tp453
a(I40590
F0.011014948859166011
tp454
a(I40596
F0.010980392156862745
tp455
a(I179825
F0.010980392156862745
tp456
a(I179095
F0.01092896174863388
tp457
a(I180554
F0.01092896174863388
tp458
a(I181283
F0.01092896174863388
tp459
a(I96279
F0.010903426791277258
tp460
a(I127534
F0.010869565217391304
tp461
a(I104061
F0.010777521170130869
tp462
a(I15784
F0.010638297872340425
tp463
a(I17146
F0.010638297872340425
tp464
a(I144104
F0.010447761194029851
tp465
a(I243302
F0.010263929618768328
tp466
a(I244267
F0.010263929618768328
tp467
a(I243531
F0.010248901903367497
tp468
a(I200804
F0.0097629009762900971
tp469
a(I79450
F0.0095302927161334244
tp470
a(I97568
F0.0095302927161334244
tp471
a(I97742
F0.0095302927161334244
tp472
a(I97906
F0.0095302927161334244
tp473
a(I29200
F0.0088919288645690833
tp474
a(I29225
F0.0086551264980026625
tp475
a(I122132
F0.0086505190311418692
tp476
a(I100857
F0.0085889570552147246
tp477
a(I241064
F0.0085522296884544893
tp478
a(I12834
F0.0083832335329341312
tp479
a(I160085
F0.0083832335329341312
tp480
a(I29078
F0.0083655083655083656
tp481
a(I29250
F0.0083655083655083656
tp482
a(I126355
F0.0077476480354178199
tp483
a(I209494
F0.0075880758807588076
tp484
a(I120583
F0.0068426197458455523
tp485
a(I173342
F0.0065420560747663555
tp486
a(I9372
F0.00615530303030303
tp487
a(I144669
F0.0061162079510703364
tp488
a(I14179
F0.00550314465408805
tp489
a(I27340
F0.0051395007342143906
tp490
a(I145051
F0.0049400141143260412
tp491
a(I239065
F0.0044486812837623135
tp492
a(I252279
F0.0038343558282208589
tp493
a(I95316
F0.0038032454361054766
tp494
a(I204169
F0.0035787321063394683
tp495
a(I204690
F0.0035787321063394683
tp496
a(I136920
F0.0035732516590096988
tp497
a(I95335
F0.0035425101214574899
tp498
a(I137428
F0.0035291152004033274
tp499
a(I137477
F0.0035291152004033274
tp500
a(I137398
F0.0034982508745627187
tp501
a(I137447
F0.0034982508745627187
tp502
a(I38522
F0.0032228360957642726
tp503
a(I223671
F0.0031028368794326243
tp504
a(I223685
F0.0031028368794326243
tp505
a(I223692
F0.0031028368794326243
tp506
a(I223700
F0.0031028368794326243
tp507
a(I223707
F0.0031028368794326243
tp508
a(I223678
F0.0031021493463328164
tp509
a(I252278
F0.0025929127052722557
tp510
atp511
a(I98115
(lp512
(I98115
F1
tp513
a(I98153
F1
tp514
a(I127952
F0.98181818181818181
tp515
a(I22221
F0.81679389312977102
tp516
a(I90040
F0.76865671641791045
tp517
a(I106204
F0.76865671641791045
tp518
a(I131254
F0.76865671641791045
tp519
a(I23991
F0.69078947368421051
tp520
a(I21971
F0.67763157894736847
tp521
a(I127565
F0.63829787234042556
tp522
a(I22346
F0.57377049180327866
tp523
a(I66061
F0.55080213903743314
tp524
a(I51204
F0.50617283950617287
tp525
a(I12468
F0.14795008912655971
tp526
a(I12389
F0.1399662731871838
tp527
a(I12550
F0.1399662731871838
tp528
a(I12632
F0.1399662731871838
tp529
a(I22891
F0.1399662731871838
tp530
a(I66117
F0.1399662731871838
tp531
a(I205752
F0.13712374581939799
tp532
a(I22188
F0.095842956120092374
tp533
a(I23958
F0.094318181818181815
tp534
a(I21938
F0.094104308390022678
tp535
a(I21889
F0.086315789473684207
tp536
a(I23909
F0.086315789473684207
tp537
a(I136734
F0.08617234468937876
tp538
a(I90357
F0.083170254403131111
tp539
a(I22805
F0.080614203454894437
tp540
a(I40592
F0.078196872125115002
tp541
a(I40594
F0.071486596263200655
tp542
a(I163665
F0.071255060728744934
tp543
a(I97409
F0.068429237947122856
tp544
a(I40590
F0.068217054263565891
tp545
a(I40596
F0.068006182380216385
tp546
a(I69501
F0.064073226544622428
tp547
a(I6166
F0.063565891472868216
tp548
a(I69201
F0.063504208110175972
tp549
a(I11908
F0.062980030721966201
tp550
a(I6135
F0.061833688699360338
tp551
a(I6172
F0.061833688699360338
tp552
a(I248158
F0.057799442896935935
tp553
a(I88351
F0.05307443365695793
tp554
a(I239066
F0.051171393341553635
tp555
a(I225661
F0.050120772946859904
tp556
a(I225664
F0.049375371802498513
tp557
a(I69492
F0.04630593132154006
tp558
a(I126355
F0.045330420535226651
tp559
a(I121387
F0.044833242208857302
tp560
a(I209494
F0.044408774745853398
tp561
a(I225706
F0.040900735294117647
tp562
a(I115365
F0.039747939893359188
tp563
a(I156343
F0.039534883720930232
tp564
a(I198063
F0.039534883720930232
tp565
a(I32642
F0.039279112754158962
tp566
a(I117083
F0.039279112754158962
tp567
a(I149445
F0.038985439173320806
tp568
a(I173342
F0.038834951456310676
tp569
a(I9372
F0.038389513108614229
tp570
a(I129028
F0.03825136612021858
tp571
a(I155787
F0.037614678899082571
tp572
a(I27340
F0.033966398831263699
tp573
a(I205592
F0.033255086071987482
tp574
a(I79260
F0.033140655105973027
tp575
a(I79249
F0.033115132845591068
tp576
a(I135441
F0.032918506623845843
tp577
a(I79250
F0.032442748091603052
tp578
a(I14179
F0.032320872274143299
tp579
a(I246237
F0.031282586027111578
tp580
a(I183664
F0.029159519725557463
tp581
a(I1211
F0.027375707992448081
tp582
a(I239065
F0.026822341432628589
tp583
a(I225665
F0.02591283863368669
tp584
a(I204169
F0.023427552839317547
tp585
a(I204690
F0.023427552839317547
tp586
a(I95316
F0.023232323232323233
tp587
a(I203634
F0.022831050228310501
tp588
a(I95335
F0.022675736961451247
tp589
a(I219539
F0.022670025188916875
tp590
a(I252279
F0.022640549478504197
tp591
a(I137428
F0.022590361445783132
tp592
a(I137477
F0.022590361445783132
tp593
a(I137398
F0.022139303482587063
tp594
a(I137447
F0.022139303482587063
tp595
a(I136920
F0.021573604060913704
tp596
a(I158572
F0.02047463936714751
tp597
a(I30880
F0.019106912838127953
tp598
a(I38522
F0.018768596932936598
tp599
a(I223671
F0.01829805996472663
tp600
a(I223685
F0.01829805996472663
tp601
a(I223692
F0.01829805996472663
tp602
a(I223700
F0.01829805996472663
tp603
a(I223707
F0.01829805996472663
tp604
a(I223678
F0.018294026890015427
tp605
a(I196601
F0.018144750254841999
tp606
a(I196576
F0.018115204559332382
tp607
a(I196584
F0.018115204559332382
tp608
a(I196592
F0.018115204559332382
tp609
a(I196615
F0.018115204559332382
tp610
a(I252278
F0.017262213015708613
tp611
a(I97597
F0.016666666666666666
tp612
atp613
a(I98116
(lp614
(I98116
F1
tp615
a(I98154
F1
tp616
a(I127953
F0.984375
tp617
a(I22347
F0.96899224806201545
tp618
a(I22222
F0.94656488549618323
tp619
a(I21972
F0.81578947368421051
tp620
a(I23992
F0.81578947368421051
tp621
a(I163665
F0.082324455205811137
tp622
a(I103618
F0.066666666666666666
tp623
a(I22146
F0.066529492455418379
tp624
a(I77988
F0.066529492455418379
tp625
a(I21896
F0.066438356164383566
tp626
a(I23916
F0.066438356164383566
tp627
a(I153858
F0.065993265993265993
tp628
a(I12478
F0.065979381443298971
tp629
a(I84216
F0.065948855989232835
tp630
a(I12399
F0.065573770491803282
tp631
a(I12560
F0.065573770491803282
tp632
a(I12642
F0.065573770491803282
tp633
a(I22901
F0.065261726716519378
tp634
a(I43936
F0.064996614759647936
tp635
a(I217542
F0.063299232736572897
tp636
a(I225664
F0.058823529411764705
tp637
a(I225373
F0.056799563080283999
tp638
a(I69492
F0.055671175858480748
tp639
a(I141075
F0.055143160127253447
tp640
a(I141441
F0.055143160127253447
tp641
a(I223937
F0.054082163286531461
tp642
a(I224866
F0.054082163286531461
tp643
a(I224371
F0.054054054054054057
tp644
a(I225964
F0.054054054054054057
tp645
a(I183616
F0.053995680345572353
tp646
a(I183678
F0.053251408090117767
tp647
a(I126355
F0.052861035422343328
tp648
a(I225659
F0.049450549450549448
tp649
a(I79246
F0.048621553884711781
tp650
a(I225706
F0.047728315741165671
tp651
a(I27343
F0.047573739295908656
tp652
a(I183680
F0.04748472026328162
tp653
a(I115365
F0.046950629235237171
tp654
a(I156343
F0.046446818392940084
tp655
a(I198063
F0.046446818392940084
tp656
a(I32642
F0.046146746654360866
tp657
a(I117083
F0.046146746654360866
tp658
a(I142452
F0.045858680393074405
tp659
a(I205464
F0.045518535898639134
tp660
a(I205513
F0.045518535898639134
tp661
a(I205558
F0.045518535898639134
tp662
a(I205657
F0.045518535898639134
tp663
a(I205612
F0.045454545454545456
tp664
a(I9372
F0.045348293595137916
tp665
a(I47901
F0.045242537313432835
tp666
a(I47981
F0.045242537313432835
tp667
a(I225660
F0.044022617124394182
tp668
a(I255833
F0.041889117043121149
tp669
a(I255988
F0.040940413457640858
tp670
a(I182516
F0.040627514078841513
tp671
a(I79250
F0.040504394344669466
tp672
a(I256190
F0.040367705835331738
tp673
a(I256416
F0.040351578106272476
tp674
a(I205592
F0.039077764751856196
tp675
a(I79249
F0.038846153846153843
tp676
a(I79260
F0.038476337052712584
tp677
a(I27340
F0.03826530612244898
tp678
a(I183664
F0.03604531410916581
tp679
a(I246237
F0.033945271908555591
tp680
a(I206057
F0.033846153846153845
tp681
a(I2120
F0.033823026990092243
tp682
a(I239065
F0.032502366677185229
tp683
a(I225665
F0.030909626140712392
tp684
a(I1211
F0.030769230769230771
tp685
a(I177310
F0.030482391240011838
tp686
a(I204169
F0.02748791040977348
tp687
a(I204690
F0.02748791040977348
tp688
a(I95316
F0.027258960121150935
tp689
a(I203634
F0.026876267748478701
tp690
a(I252279
F0.026697177726926011
tp691
a(I95335
F0.026693528078569631
tp692
a(I219539
F0.026686807653575024
tp693
a(I137428
F0.026593075765178123
tp694
a(I137477
F0.026593075765178123
tp695
a(I137398
F0.025851354710415112
tp696
a(I137447
F0.025851354710415112
tp697
a(I136920
F0.0245818550430816
tp698
a(I38522
F0.024295209718083886
tp699
a(I158572
F0.023709902370990237
tp700
a(I223671
F0.023168578993821711
tp701
a(I223685
F0.023168578993821711
tp702
a(I223692
F0.023168578993821711
tp703
a(I223700
F0.023168578993821711
tp704
a(I223707
F0.023168578993821711
tp705
a(I223678
F0.023163467902051621
tp706
a(I30880
F0.022532188841201718
tp707
a(I196601
F0.021398002853067047
tp708
a(I196576
F0.021363173957273652
tp709
a(I196584
F0.021363173957273652
tp710
a(I196592
F0.021363173957273652
tp711
a(I196615
F0.021363173957273652
tp712
a(I252278
F0.019489479130734736
tp713
a(I97597
F0.019288093985621604
tp714
atp715
a(I98117
(lp716
(I98117
F1
tp717
a(I98155
F1
tp718
a(I21973
F0.95348837209302328
tp719
a(I22223
F0.95348837209302328
tp720
a(I22348
F0.95348837209302328
tp721
a(I23993
F0.95348837209302328
tp722
a(I127954
F0.95348837209302328
tp723
a(I18361
F0.2661290322580645
tp724
a(I18325
F0.23741007194244604
tp725
a(I18386
F0.23741007194244604
tp726
a(I18418
F0.23741007194244604
tp727
a(I22824
F0.1875
tp728
a(I18323
F0.17098445595854922
tp729
a(I18416
F0.17098445595854922
tp730
a(I66063
F0.15962441314553991
tp731
a(I90044
F0.15384615384615385
tp732
a(I131258
F0.15111111111111111
tp733
a(I18338
F0.13636363636363635
tp734
a(I18431
F0.13636363636363635
tp735
a(I22356
F0.093150684931506855
tp736
a(I22231
F0.092896174863387984
tp737
a(I22838
F0.091160220994475141
tp738
a(I21981
F0.088383838383838384
tp739
a(I24001
F0.088383838383838384
tp740
a(I79134
F0.055932203389830508
tp741
a(I79916
F0.055932203389830508
tp742
a(I55949
F0.046875
tp743
a(I12471
F0.046544428772919602
tp744
a(I90349
F0.044973544973544971
tp745
a(I43827
F0.044058744993324434
tp746
a(I27745
F0.043593130779392336
tp747
a(I12553
F0.041772151898734178
tp748
a(I12392
F0.038073908174692049
tp749
a(I12635
F0.038073908174692049
tp750
a(I22894
F0.03803131991051454
tp751
a(I90357
F0.033797216699801194
tp752
a(I22805
F0.033170731707317075
tp753
a(I210331
F0.031164069660861594
tp754
a(I40592
F0.030783582089552237
tp755
a(I40594
F0.029605263157894735
tp756
a(I97409
F0.028324154209284028
tp757
a(I40590
F0.02823529411764706
tp758
a(I40596
F0.028146989835809225
tp759
a(I163665
F0.027823240589198037
tp760
a(I6166
F0.027559055118110236
tp761
a(I45598
F0.027431421446384038
tp762
a(I46212
F0.027431421446384038
tp763
a(I20287
F0.027408637873754152
tp764
a(I30331
F0.027408637873754152
tp765
a(I79248
F0.026807473598700244
tp766
a(I6135
F0.026618705035971222
tp767
a(I6172
F0.026618705035971222
tp768
a(I11908
F0.026500389711613406
tp769
a(I69201
F0.026377036462373934
tp770
a(I164516
F0.026234567901234566
tp771
a(I84163
F0.025306748466257668
tp772
a(I154212
F0.02514792899408284
tp773
a(I59586
F0.024763292061179897
tp774
a(I43936
F0.02268041237113402
tp775
a(I114818
F0.02268041237113402
tp776
a(I51448
F0.022664835164835164
tp777
a(I101605
F0.022252191503708697
tp778
a(I225661
F0.021380574221136223
tp779
a(I34838
F0.021331609566903685
tp780
a(I117839
F0.020612117426608369
tp781
a(I79259
F0.020586400499064253
tp782
a(I225664
F0.020444978953698137
tp783
a(I108704
F0.019619500594530322
tp784
a(I34829
F0.019197207678883072
tp785
a(I69492
F0.018867924528301886
tp786
a(I34825
F0.018269747447608814
tp787
a(I57309
F0.017423442449841606
tp788
a(I83570
F0.016828148903620603
tp789
a(I173342
F0.015843429636533086
tp790
a(I27343
F0.01583493282149712
tp791
a(I155787
F0.015733456732993985
tp792
a(I10926
F0.015721772272510721
tp793
a(I225706
F0.015711645101663587
tp794
a(I32642
F0.015355979525360632
tp795
a(I117083
F0.015355979525360632
tp796
a(I79249
F0.013560635412630763
tp797
a(I79250
F0.013056835637480798
tp798
a(I14179
F0.012936103488827911
tp799
a(I246237
F0.012216404886561954
tp800
a(I27340
F0.012083485902599781
tp801
a(I83886
F0.011383235598482234
tp802
a(I2120
F0.011348005502063274
tp803
a(I1211
F0.010745891276864728
tp804
a(I225665
F0.01064773735581189
tp805
a(I204169
F0.009450830140485313
tp806
a(I204690
F0.009450830140485313
tp807
a(I95316
F0.0093718338399189464
tp808
a(I203634
F0.0091626368032578266
tp809
a(I95335
F0.0091001011122345803
tp810
a(I219539
F0.0090978013646702046
tp811
a(I137428
F0.0090657265172500636
tp812
a(I137477
F0.0090657265172500636
tp813
a(I252279
F0.0086756825720847152
tp814
a(I97597
F0.0061479009309678553
tp815
a(I252278
F0.0058701657458563533
tp816
atp817
a(I98118
(lp818
(I98118
F1
tp819
a(I98156
F1
tp820
a(I18366
F0.97872340425531912
tp821
a(I18332
F0.95833333333333337
tp822
a(I18392
F0.95833333333333337
tp823
a(I18425
F0.95833333333333337
tp824
a(I21974
F0.95833333333333337
tp825
a(I22224
F0.95833333333333337
tp826
a(I22349
F0.95833333333333337
tp827
a(I22832
F0.95833333333333337
tp828
a(I23994
F0.95833333333333337
tp829
a(I66064
F0.95833333333333337
tp830
a(I90045
F0.95833333333333337
tp831
a(I127955
F0.95833333333333337
tp832
a(I131259
F0.95833333333333337
tp833
a(I127958
F0.1391941391941392
tp834
a(I98121
F0.13868613138686131
tp835
a(I98159
F0.13868613138686131
tp836
a(I21977
F0.12925170068027211
tp837
a(I22227
F0.12925170068027211
tp838
a(I22352
F0.12925170068027211
tp839
a(I23997
F0.12925170068027211
tp840
a(I227552
F0.077551020408163265
tp841
a(I164005
F0.077393075356415472
tp842
a(I90349
F0.051587301587301584
tp843
a(I225877
F0.04710144927536232
tp844
a(I212497
F0.047087980173482029
tp845
a(I212707
F0.047087980173482029
tp846
a(I224280
F0.047087980173482029
tp847
a(I225209
F0.047087980173482029
tp848
a(I212632
F0.046855733662145502
tp849
a(I177142
F0.046454767726161368
tp850
a(I177150
F0.044571428571428574
tp851
a(I182459
F0.042505592841163314
tp852
a(I255934
F0.042505592841163314
tp853
a(I256093
F0.042505592841163314
tp854
a(I256319
F0.042505592841163314
tp855
a(I214486
F0.039354187689202826
tp856
a(I195602
F0.039138943248532287
tp857
a(I90357
F0.038767395626242547
tp858
a(I22805
F0.038048780487804877
tp859
a(I163665
F0.034454470877768664
tp860
a(I165690
F0.031746031746031744
tp861
a(I40594
F0.031173092698933553
tp862
a(I79248
F0.030869212022745736
tp863
a(I97409
F0.029827315541601257
tp864
a(I40590
F0.029733959311424099
tp865
a(I40596
F0.029641185647425898
tp866
a(I15784
F0.02872260015117158
tp867
a(I17146
F0.02872260015117158
tp868
a(I155
F0.027924528301886794
tp869
a(I172915
F0.027698863636363636
tp870
a(I225664
F0.025919228450874021
tp871
a(I225661
F0.025688073394495414
tp872
a(I178756
F0.024111675126903553
tp873
a(I179486
F0.024111675126903553
tp874
a(I180215
F0.024111675126903553
tp875
a(I180944
F0.024111675126903553
tp876
a(I34829
F0.023892773892773892
tp877
a(I79259
F0.023705552089831567
tp878
a(I241066
F0.023432923257176334
tp879
a(I69492
F0.022560335781741866
tp880
a(I168561
F0.021848739495798318
tp881
a(I209494
F0.021621621621621623
tp882
a(I169204
F0.021522309711286089
tp883
a(I225373
F0.021475770925110133
tp884
a(I223937
F0.020440251572327043
tp885
a(I224866
F0.020440251572327043
tp886
a(I225706
F0.019907407407407408
tp887
a(I173342
F0.017699115044247787
tp888
a(I155787
F0.01757631822386679
tp889
a(I225660
F0.01705237515225335
tp890
a(I79249
F0.015497869043006587
tp891
a(I79250
F0.015366884364195159
tp892
a(I14179
F0.015294117647058824
tp893
a(I246237
F0.013961605584642234
tp894
a(I206057
F0.013774104683195593
tp895
a(I2120
F0.013764624913971095
tp896
a(I1211
F0.012646221941195067
tp897
a(I225665
F0.012126589766341319
tp898
a(I204169
F0.011244569384104269
tp899
a(I204690
F0.011244569384104269
tp900
a(I95316
F0.011150532184490624
tp901
a(I203634
F0.010949834479246244
tp902
a(I95335
F0.010875063227111785
tp903
a(I219539
F0.010872313527180783
tp904
a(I137428
F0.010833963214915596
tp905
a(I137477
F0.010833963214915596
tp906
a(I137398
F0.009730538922155689
tp907
a(I137447
F0.009730538922155689
tp908
a(I252279
F0.0096938775510204082
tp909
a(I158572
F0.0095727293952836794
tp910
a(I30880
F0.0083943176926388283
tp911
a(I196601
F0.0079705702023298592
tp912
a(I196576
F0.0079575596816976128
tp913
a(I196584
F0.0079575596816976128
tp914
a(I196592
F0.0079575596816976128
tp915
a(I196615
F0.0079575596816976128
tp916
a(I97597
F0.0073800738007380072
tp917
a(I252278
F0.0072551390568319227
tp918
atp919
a(I98119
(lp920
(I98119
F1
tp921
a(I98157
F1
tp922
a(I18333
F0.95999999999999996
tp923
a(I18367
F0.95999999999999996
tp924
a(I18393
F0.95999999999999996
tp925
a(I18426
F0.95999999999999996
tp926
a(I21975
F0.95999999999999996
tp927
a(I22225
F0.95999999999999996
tp928
a(I22350
F0.95999999999999996
tp929
a(I22833
F0.95999999999999996
tp930
a(I23995
F0.95999999999999996
tp931
a(I66065
F0.95999999999999996
tp932
a(I90046
F0.95999999999999996
tp933
a(I127956
F0.95999999999999996
tp934
a(I131260
F0.95999999999999996
tp935
a(I21905
F0.18536585365853658
tp936
a(I22155
F0.18536585365853658
tp937
a(I23925
F0.18536585365853658
tp938
a(I255228
F0.11818181818181818
tp939
a(I163804
F0.11370262390670553
tp940
a(I168049
F0.11370262390670553
tp941
a(I255199
F0.11370262390670553
tp942
a(I255255
F0.11370262390670553
tp943
a(I171833
F0.095121951219512196
tp944
a(I8423
F0.08656036446469248
tp945
a(I9113
F0.083150984682713341
tp946
a(I12468
F0.0695970695970696
tp947
a(I163730
F0.067010309278350513
tp948
a(I12389
F0.065743944636678195
tp949
a(I12550
F0.065743944636678195
tp950
a(I12632
F0.065743944636678195
tp951
a(I22891
F0.065743944636678195
tp952
a(I14188
F0.038894575230296824
tp953
a(I22805
F0.036964980544747082
tp954
a(I163665
F0.032706459525756335
tp955
a(I3493
F0.032176121930567313
tp956
a(I20287
F0.03150912106135987
tp957
a(I61576
F0.031502423263327951
tp958
a(I69202
F0.029999999999999999
tp959
a(I145437
F0.02997694081475788
tp960
a(I11909
F0.029930928626247123
tp961
a(I104061
F0.029839326702371844
tp962
a(I6166
F0.029827315541601257
tp963
a(I133588
F0.029657794676806085
tp964
a(I210332
F0.028846153846153848
tp965
a(I172915
F0.028388928317955996
tp966
a(I62013
F0.028281363306744016
tp967
a(I62211
F0.028281363306744016
tp968
a(I84288
F0.027777777777777776
tp969
a(I6135
F0.027220630372492838
tp970
a(I6172
F0.027220630372492838
tp971
a(I34837
F0.027084818246614399
tp972
a(I43936
F0.026080988332189432
tp973
a(I51448
F0.026063100137174212
tp974
a(I98233
F0.026034712950600801
tp975
a(I225661
F0.025030525030525032
tp976
a(I159005
F0.024
tp977
a(I3511
F0.023471278567016678
tp978
a(I241066
F0.022807017543859651
tp979
a(I227157
F0.022400919012062034
tp980
a(I168561
F0.022396416573348264
tp981
a(I122132
F0.022375215146299483
tp982
a(I145248
F0.022096317280453259
tp983
a(I34829
F0.022080185938407902
tp984
a(I165590
F0.021540118470651588
tp985
a(I209494
F0.021046950890447922
tp986
a(I227156
F0.02065677966101695
tp987
a(I169204
F0.020429544264012573
tp988
a(I83570
F0.020397756246812851
tp989
a(I69492
F0.020397489539748955
tp990
a(I79246
F0.019746835443037975
tp991
a(I10926
F0.019542421353670163
tp992
a(I120583
F0.018987341772151899
tp993
a(I225706
F0.018475750577367205
tp994
a(I134465
F0.018091361374943465
tp995
a(I144669
F0.01697866782760122
tp996
a(I115439
F0.016853932584269662
tp997
a(I225660
F0.016626115166261151
tp998
a(I155502
F0.016202742002492731
tp999
a(I135441
F0.016174686615446826
tp1000
a(I196257
F0.015990159901599015
tp1001
a(I79250
F0.015355086372360844
tp1002
a(I205592
F0.015342250196695516
tp1003
a(I14179
F0.014884449667058363
tp1004
a(I83886
F0.013797861331493619
tp1005
a(I145051
F0.013722730471498945
tp1006
a(I239065
F0.012361331220285262
tp1007
a(I1211
F0.011998736975055258
tp1008
a(I225665
F0.011820330969267139
tp1009
a(I204169
F0.010464522715671261
tp1010
a(I204690
F0.010464522715671261
tp1011
a(I95316
F0.010377119716527461
tp1012
a(I203634
F0.010172939979654121
tp1013
a(I95335
F0.010103561505430665
tp1014
a(I219539
F0.010101010101010102
tp1015
a(I137428
F0.010065425264217413
tp1016
a(I137477
F0.010065425264217413
tp1017
a(I158572
F0.0095682613768961495
tp1018
a(I97597
F0.0073774811171614264
tp1019
a(I252278
F0.0070787292817679559
tp1020
atp1021
a(I98120
(lp1022
(I98120
F1
tp1023
a(I98158
F1
tp1024
a(I21976
F0.9838709677419355
tp1025
a(I22226
F0.9838709677419355
tp1026
a(I22351
F0.9838709677419355
tp1027
a(I23996
F0.9838709677419355
tp1028
a(I127957
F0.9838709677419355
tp1029
a(I18334
F0.91729323308270672
tp1030
a(I18394
F0.91729323308270672
tp1031
a(I18427
F0.91729323308270672
tp1032
a(I22834
F0.91044776119402981
tp1033
a(I18368
F0.63076923076923075
tp1034
a(I66066
F0.63076923076923075
tp1035
a(I90047
F0.63076923076923075
tp1036
a(I123417
F0.63076923076923075
tp1037
a(I47033
F0.13870967741935483
tp1038
a(I164993
F0.094818081587651593
tp1039
a(I40592
F0.074275362318840576
tp1040
a(I40594
F0.068108974358974353
tp1041
a(I99686
F0.067378800328677074
tp1042
a(I163665
F0.067039106145251395
tp1043
a(I97409
F0.066052227342549924
tp1044
a(I40590
F0.065849923430321589
tp1045
a(I40596
F0.065648854961832065
tp1046
a(I69501
F0.063396226415094334
tp1047
a(I6135
F0.057503506311360447
tp1048
a(I6172
F0.057503506311360447
tp1049
a(I200804
F0.05710401087695445
tp1050
a(I117839
F0.054735547355473556
tp1051
a(I225664
F0.049586776859504134
tp1052
a(I137249
F0.04753914988814318
tp1053
a(I121387
F0.047334058759521222
tp1054
a(I44148
F0.045602605863192182
tp1055
a(I209494
F0.045188729399255716
tp1056
a(I183616
F0.045064377682403435
tp1057
a(I57309
F0.044201768070722826
tp1058
a(I165590
F0.043961864406779662
tp1059
a(I169204
F0.043343653250773995
tp1060
a(I34825
F0.043294614572333683
tp1061
a(I69492
F0.043276661514683151
tp1062
a(I227156
F0.043274244004171014
tp1063
a(I27343
F0.040227165168007575
tp1064
a(I225706
F0.040164308534915566
tp1065
a(I156343
F0.039279112754158962
tp1066
a(I198063
F0.039279112754158962
tp1067
a(I173342
F0.0390625
tp1068
a(I32642
F0.039026629935720848
tp1069
a(I117083
F0.039026629935720848
tp1070
a(I177314
F0.037613488975356678
tp1071
a(I99685
F0.037070524412296565
tp1072
a(I241069
F0.034372501998401278
tp1073
a(I155502
F0.034058268362741076
tp1074
a(I255833
F0.03387755102040816
tp1075
a(I255988
F0.033454252317613863
tp1076
a(I79250
F0.033447358418852151
tp1077
a(I225660
F0.03322658126501201
tp1078
a(I182516
F0.0332
tp1079
a(I256190
F0.032988871224165342
tp1080
a(I256416
F0.032975764799364322
tp1081
a(I79249
F0.032937571811566452
tp1082
a(I162383
F0.032756716967243284
tp1083
a(I205592
F0.032672112018669777
tp1084
a(I79260
F0.032567049808429116
tp1085
a(I27340
F0.03191875226695684
tp1086
a(I206057
F0.030365063118389629
tp1087
a(I2120
F0.030344357313331061
tp1088
a(I145051
F0.030334728033472803
tp1089
a(I246237
F0.028640441683919944
tp1090
a(I1211
F0.027255639097744359
tp1091
a(I239065
F0.026381909547738693
tp1092
a(I225665
F0.02610736286300968
tp1093
a(I177310
F0.025656148628723091
tp1094
a(I95316
F0.024439405391786344
tp1095
a(I204169
F0.024384048768097535
tp1096
a(I204690
F0.024384048768097535
tp1097
a(I95335
F0.024138798089011818
tp1098
a(I137428
F0.024048096192384769
tp1099
a(I137477
F0.024048096192384769
tp1100
a(I203634
F0.024044545684636799
tp1101
a(I219539
F0.023875345564212114
tp1102
a(I252279
F0.02359807155544278
tp1103
a(I137398
F0.023076923076923078
tp1104
a(I137447
F0.023076923076923078
tp1105
a(I136920
F0.022531645569620253
tp1106
a(I158572
F0.020881670533642691
tp1107
a(I38522
F0.020105094813799407
tp1108
a(I223671
F0.019586267605633804
tp1109
a(I223685
F0.019586267605633804
tp1110
a(I223692
F0.019586267605633804
tp1111
a(I223700
F0.019586267605633804
tp1112
a(I223707
F0.019586267605633804
tp1113
a(I223678
F0.019581958195819583
tp1114
a(I30880
F0.019049657534246575
tp1115
a(I196601
F0.018093108355356779
tp1116
a(I196576
F0.018063730464785873
tp1117
a(I196584
F0.018063730464785873
tp1118
a(I196592
F0.018063730464785873
tp1119
a(I196615
F0.018063730464785873
tp1120
a(I252278
F0.017045454545454544
tp1121
a(I97597
F0.016625831291564579
tp1122
atp1123
a(I98121
(lp1124
(I98121
F1
tp1125
a(I98159
F1
tp1126
a(I127958
F0.98872180451127822
tp1127
a(I21977
F0.91637630662020908
tp1128
a(I22227
F0.91637630662020908
tp1129
a(I22352
F0.91637630662020908
tp1130
a(I23997
F0.91637630662020908
tp1131
a(I18335
F0.88172043010752688
tp1132
a(I18369
F0.88172043010752688
tp1133
a(I18395
F0.88172043010752688
tp1134
a(I18428
F0.88172043010752688
tp1135
a(I90048
F0.88172043010752688
tp1136
a(I131262
F0.88172043010752688
tp1137
a(I22835
F0.87813620071684584
tp1138
a(I66067
F0.87813620071684584
tp1139
a(I22188
F0.18689581095596133
tp1140
a(I23958
F0.18412698412698414
tp1141
a(I21938
F0.18373812038014783
tp1142
a(I163665
F0.1376923076923077
tp1143
a(I40594
F0.13374327440430439
tp1144
a(I97409
F0.12831858407079647
tp1145
a(I40590
F0.12794117647058822
tp1146
a(I40596
F0.12756598240469208
tp1147
a(I248158
F0.12040133779264214
tp1148
a(I51352
F0.10810810810810811
tp1149
a(I3511
F0.10176470588235294
tp1150
a(I69492
F0.10167768174885612
tp1151
a(I225664
F0.10028653295128939
tp1152
a(I183678
F0.089330024813895778
tp1153
a(I209494
F0.088842975206611566
tp1154
a(I191061
F0.088534107402031936
tp1155
a(I225659
F0.08742107819329771
tp1156
a(I79246
F0.086744639376218319
tp1157
a(I225706
F0.086624775583482944
tp1158
a(I79764
F0.08416075650118203
tp1159
a(I79593
F0.084094185487746276
tp1160
a(I115365
F0.083333333333333329
tp1161
a(I9372
F0.083029197080291967
tp1162
a(I183680
F0.082342177493138158
tp1163
a(I129028
F0.081705150976909419
tp1164
a(I10926
F0.081267217630853997
tp1165
a(I27343
F0.079335793357933573
tp1166
a(I79172
F0.079252003561887802
tp1167
a(I79954
F0.079252003561887802
tp1168
a(I205612
F0.077963046417305087
tp1169
a(I177314
F0.07620660457239628
tp1170
a(I79250
F0.075159714393085303
tp1171
a(I34827
F0.074633123689727465
tp1172
a(I225660
F0.074585635359116026
tp1173
a(I255833
F0.073434991974317812
tp1174
a(I255988
F0.072957969865186365
tp1175
a(I79249
F0.072940287226001516
tp1176
a(I182516
F0.072834645669291334
tp1177
a(I241069
F0.07269155206286837
tp1178
a(I256190
F0.072378716744913932
tp1179
a(I256416
F0.072350410637465778
tp1180
a(I144669
F0.072268907563025217
tp1181
a(I135441
F0.070615927814829352
tp1182
a(I157934
F0.070210234034113445
tp1183
a(I205592
F0.068781047000382123
tp1184
a(I79260
F0.068147590361445784
tp1185
a(I162383
F0.067342505430847216
tp1186
a(I183664
F0.06585612968591692
tp1187
a(I145051
F0.064993122420907837
tp1188
a(I27340
F0.064504632929436923
tp1189
a(I1211
F0.06077519379844961
tp1190
a(I225665
F0.059988351776354108
tp1191
a(I246237
F0.059721750933152358
tp1192
a(I206057
F0.057878889260622284
tp1193
a(I2120
F0.057840187228351721
tp1194
a(I239065
F0.05670901766346452
tp1195
a(I177310
F0.052631578947368418
tp1196
a(I95316
F0.051737065733566609
tp1197
a(I204169
F0.05163727959697733
tp1198
a(I204690
F0.05163727959697733
tp1199
a(I95335
F0.051122194513715712
tp1200
a(I203634
F0.050941028858218322
tp1201
a(I137428
F0.050931677018633541
tp1202
a(I137477
F0.050931677018633541
tp1203
a(I219539
F0.050585596810366312
tp1204
a(I252279
F0.050566037735849056
tp1205
a(I137398
F0.049200492004920049
tp1206
a(I137447
F0.049200492004920049
tp1207
a(I136920
F0.047607116011024804
tp1208
a(I158572
F0.046543778801843315
tp1209
a(I38522
F0.046094459582198002
tp1210
a(I223671
F0.044857768052516414
tp1211
a(I223685
F0.044857768052516414
tp1212
a(I223692
F0.044857768052516414
tp1213
a(I223700
F0.044857768052516414
tp1214
a(I223707
F0.044857768052516414
tp1215
a(I223678
F0.044847954495733977
tp1216
a(I30880
F0.042526047203912398
tp1217
a(I196601
F0.040824575586095389
tp1218
a(I196576
F0.040758676351896693
tp1219
a(I196584
F0.040758676351896693
tp1220
a(I196592
F0.040758676351896693
tp1221
a(I196615
F0.040758676351896693
tp1222
a(I252278
F0.038454935622317596
tp1223
a(I97597
F0.037120948065528056
tp1224
atp1225
a(I98122
(lp1226
(I98122
F1
tp1227
a(I98160
F1
tp1228
a(I21978
F0.96078431372549022
tp1229
a(I22228
F0.96078431372549022
tp1230
a(I22353
F0.96078431372549022
tp1231
a(I23998
F0.96078431372549022
tp1232
a(I127959
F0.96078431372549022
tp1233
a(I90049
F0.90384615384615385
tp1234
a(I131263
F0.90384615384615385
tp1235
a(I18336
F0.8867924528301887
tp1236
a(I18370
F0.8867924528301887
tp1237
a(I18396
F0.8867924528301887
tp1238
a(I18429
F0.8867924528301887
tp1239
a(I22836
F0.8867924528301887
tp1240
a(I66068
F0.8867924528301887
tp1241
a(I18366
F0.57377049180327866
tp1242
a(I18332
F0.56451612903225812
tp1243
a(I18392
F0.56451612903225812
tp1244
a(I18425
F0.56451612903225812
tp1245
a(I21974
F0.56451612903225812
tp1246
a(I22224
F0.56451612903225812
tp1247
a(I22349
F0.56451612903225812
tp1248
a(I22832
F0.56451612903225812
tp1249
a(I23994
F0.56451612903225812
tp1250
a(I66064
F0.56451612903225812
tp1251
a(I90045
F0.56451612903225812
tp1252
a(I98118
F0.56451612903225812
tp1253
a(I98156
F0.56451612903225812
tp1254
a(I127955
F0.56451612903225812
tp1255
a(I131259
F0.56451612903225812
tp1256
a(I22835
F0.12363636363636364
tp1257
a(I18335
F0.12318840579710146
tp1258
a(I18369
F0.12318840579710146
tp1259
a(I18395
F0.12318840579710146
tp1260
a(I18428
F0.12318840579710146
tp1261
a(I21977
F0.11295681063122924
tp1262
a(I22227
F0.11295681063122924
tp1263
a(I22352
F0.11295681063122924
tp1264
a(I23997
F0.11295681063122924
tp1265
a(I177150
F0.03968253968253968
tp1266
a(I22805
F0.032913843175217811
tp1267
a(I19388
F0.03090909090909091
tp1268
a(I163665
F0.030154849225753871
tp1269
a(I99686
F0.02938706968933669
tp1270
a(I78241
F0.02936241610738255
tp1271
a(I78325
F0.029313232830820771
tp1272
a(I78420
F0.029313232830820771
tp1273
a(I11913
F0.028451882845188285
tp1274
a(I40594
F0.027732463295269169
tp1275
a(I15784
F0.02710843373493976
tp1276
a(I17146
F0.02710843373493976
tp1277
a(I216210
F0.026717557251908396
tp1278
a(I216095
F0.026697177726926011
tp1279
a(I216321
F0.026697177726926011
tp1280
a(I40590
F0.026459143968871595
tp1281
a(I40596
F0.026377036462373934
tp1282
a(I11909
F0.025974025974025976
tp1283
a(I155
F0.025544703230653644
tp1284
a(I59586
F0.024619840695148443
tp1285
a(I200804
F0.024187975120939877
tp1286
a(I168431
F0.023989033584647018
tp1287
a(I109312
F0.023956194387405885
tp1288
a(I41153
F0.023255813953488372
tp1289
a(I225661
F0.02251978088861838
tp1290
a(I225664
F0.021569802276812461
tp1291
a(I209494
F0.019935344827586209
tp1292
a(I169204
F0.019884877027734171
tp1293
a(I69492
F0.019853709508881923
tp1294
a(I109302
F0.019262520638414968
tp1295
a(I225706
F0.01705855232826187
tp1296
a(I10926
F0.016144349477682812
tp1297
a(I157934
F0.014297385620915032
tp1298
a(I14179
F0.014084507042253521
tp1299
a(I79249
F0.013518733101583623
tp1300
a(I79250
F0.013404825737265416
tp1301
a(I206057
F0.012714776632302405
tp1302
a(I2120
F0.012706043956043956
tp1303
a(I246237
F0.012182387747998607
tp1304
a(I1211
F0.011037527593818985
tp1305
a(I225665
F0.010920897284533649
tp1306
a(I204169
F0.010719754977029096
tp1307
a(I204690
F0.010719754977029096
tp1308
a(I95316
F0.010630220197418374
tp1309
a(I203634
F0.010427263479145472
tp1310
a(I95335
F0.01035615054306643
tp1311
a(I219539
F0.010353535353535354
tp1312
a(I137428
F0.010317060895822849
tp1313
a(I137477
F0.010317060895822849
tp1314
a(I252279
F0.0094291539245667678
tp1315
a(I137398
F0.0092200348866184906
tp1316
a(I137447
F0.0092200348866184906
tp1317
a(I158572
F0.0086247086247086251
tp1318
a(I30880
F0.0077386070507308681
tp1319
a(I196601
F0.0073484384568279241
tp1320
a(I196576
F0.0073364581210515591
tp1321
a(I196584
F0.0073364581210515591
tp1322
a(I196592
F0.0073364581210515591
tp1323
a(I196615
F0.0073364581210515591
tp1324
a(I252278
F0.0067299396031061257
tp1325
a(I97597
F0.0066690066690066694
tp1326
atp1327
a(I98123
(lp1328
(I98123
F1
tp1329
a(I98161
F1
tp1330
a(I18337
F0.97435897435897434
tp1331
a(I18371
F0.97435897435897434
tp1332
a(I18397
F0.97435897435897434
tp1333
a(I18430
F0.97435897435897434
tp1334
a(I21979
F0.97435897435897434
tp1335
a(I22229
F0.97435897435897434
tp1336
a(I22354
F0.97435897435897434
tp1337
a(I22837
F0.97435897435897434
tp1338
a(I23999
F0.97435897435897434
tp1339
a(I66069
F0.97435897435897434
tp1340
a(I90050
F0.97435897435897434
tp1341
a(I127960
F0.97435897435897434
tp1342
a(I131264
F0.97435897435897434
tp1343
a(I145439
F0.079866888519134774
tp1344
a(I154182
F0.062918340026773767
tp1345
a(I213389
F0.058755760368663597
tp1346
a(I14188
F0.049295774647887321
tp1347
a(I101603
F0.04527938342967245
tp1348
a(I154574
F0.04170212765957447
tp1349
a(I157273
F0.040506329113924051
tp1350
a(I90581
F0.03903903903903904
tp1351
a(I83887
F0.03884297520661157
tp1352
a(I61576
F0.037360890302066775
tp1353
a(I61656
F0.037037037037037035
tp1354
a(I61747
F0.037037037037037035
tp1355
a(I61864
F0.037037037037037035
tp1356
a(I11908
F0.036809815950920248
tp1357
a(I69201
F0.036641221374045803
tp1358
a(I114116
F0.036485480268056592
tp1359
a(I134772
F0.0362095531587057
tp1360
a(I104061
F0.036199095022624438
tp1361
a(I90585
F0.035581912527798368
tp1362
a(I133588
F0.035205992509363293
tp1363
a(I134836
F0.034407027818448024
tp1364
a(I246239
F0.0339943342776204
tp1365
a(I6135
F0.033946251768033946
tp1366
a(I6172
F0.033946251768033946
tp1367
a(I62013
F0.033595425303788423
tp1368
a(I62211
F0.033595425303788423
tp1369
a(I154575
F0.033052039381153309
tp1370
a(I108153
F0.03302881236823612
tp1371
a(I172915
F0.032867132867132866
tp1372
a(I126875
F0.031692515171948751
tp1373
a(I112501
F0.03164983164983165
tp1374
a(I135666
F0.03164983164983165
tp1375
a(I225661
F0.031419939577039278
tp1376
a(I98233
F0.030961791831357048
tp1377
a(I178756
F0.030721003134796237
tp1378
a(I179486
F0.030721003134796237
tp1379
a(I180215
F0.030721003134796237
tp1380
a(I180944
F0.030721003134796237
tp1381
a(I48773
F0.030322580645161291
tp1382
a(I48811
F0.030264005151320026
tp1383
a(I48859
F0.030264005151320026
tp1384
a(I15265
F0.029615626969124134
tp1385
a(I16627
F0.029596977329974811
tp1386
a(I159005
F0.029197080291970802
tp1387
a(I137249
F0.028716216216216218
tp1388
a(I168561
F0.026009961261759824
tp1389
a(I126355
F0.02561307901907357
tp1390
a(I34825
F0.025504782146652496
tp1391
a(I83570
F0.025265285497726123
tp1392
a(I79246
F0.024072216649949848
tp1393
a(I225706
F0.023842274186153142
tp1394
a(I156343
F0.02274837511606314
tp1395
a(I198063
F0.02274837511606314
tp1396
a(I32642
F0.022601476014760147
tp1397
a(I117083
F0.022601476014760147
tp1398
a(I27343
F0.022327790973871733
tp1399
a(I99685
F0.022282855843565257
tp1400
a(I142452
F0.021983161833489244
tp1401
a(I205592
F0.02033633163863903
tp1402
a(I157934
F0.01949634443541836
tp1403
a(I246237
F0.018743491843110031
tp1404
a(I79250
F0.018285714285714287
tp1405
a(I83886
F0.018188057652711049
tp1406
a(I79249
F0.018049155145929339
tp1407
a(I145051
F0.017844646606018196
tp1408
a(I27340
F0.017448200654307525
tp1409
a(I146160
F0.017278617710583154
tp1410
a(I239065
F0.016083254493850521
tp1411
a(I1211
F0.016027655562539284
tp1412
a(I225665
F0.014697236919459141
tp1413
a(I252279
F0.012954025908051815
tp1414
a(I95316
F0.012849584278155708
tp1415
a(I204169
F0.0127000254000508
tp1416
a(I204690
F0.0127000254000508
tp1417
a(I95335
F0.012572290671360321
tp1418
a(I137428
F0.012525050100200401
tp1419
a(I137477
F0.012525050100200401
tp1420
a(I203634
F0.012401923563654771
tp1421
a(I219539
F0.012314651922593617
tp1422
a(I137398
F0.011662531017369727
tp1423
a(I137447
F0.011662531017369727
tp1424
a(I158572
F0.011617100371747211
tp1425
a(I30880
F0.010068551842330763
tp1426
a(I252278
F0.0092991217496125374
tp1427
a(I97597
F0.0089285714285714281
tp1428
atp1429
a(I98124
(lp1430
(I98124
F1
tp1431
a(I98162
F1
tp1432
a(I21980
F0.94117647058823528
tp1433
a(I22230
F0.94117647058823528
tp1434
a(I22355
F0.94117647058823528
tp1435
a(I24000
F0.94117647058823528
tp1436
a(I127961
F0.94117647058823528
tp1437
a(I66070
F0.15340909090909091
tp1438
a(I133661
F0.14673913043478262
tp1439
a(I18372
F0.14285714285714285
tp1440
a(I90051
F0.14285714285714285
tp1441
a(I131265
F0.14285714285714285
tp1442
a(I18398
F0.13170731707317074
tp1443
a(I18338
F0.11764705882352941
tp1444
a(I18431
F0.11764705882352941
tp1445
a(I66072
F0.11392405063291139
tp1446
a(I90053
F0.11392405063291139
tp1447
a(I131267
F0.11392405063291139
tp1448
a(I98125
F0.11020408163265306
tp1449
a(I98163
F0.11020408163265306
tp1450
a(I127962
F0.10975609756097561
tp1451
a(I40648
F0.087378640776699032
tp1452
a(I40808
F0.087378640776699032
tp1453
a(I212451
F0.079411764705882348
tp1454
a(I212470
F0.079411764705882348
tp1455
a(I212661
F0.079411764705882348
tp1456
a(I22838
F0.078212290502793297
tp1457
a(I163803
F0.078034682080924858
tp1458
a(I168048
F0.078034682080924858
tp1459
a(I212608
F0.077142857142857138
tp1460
a(I163729
F0.075471698113207544
tp1461
a(I22356
F0.0743801652892562
tp1462
a(I22231
F0.074175824175824176
tp1463
a(I18399
F0.072727272727272724
tp1464
a(I21981
F0.068354430379746839
tp1465
a(I24001
F0.068354430379746839
tp1466
a(I18339
F0.065882352941176475
tp1467
a(I18432
F0.065882352941176475
tp1468
a(I141338
F0.064814814814814811
tp1469
a(I141718
F0.064814814814814811
tp1470
a(I224657
F0.064814814814814811
tp1471
a(I226250
F0.064814814814814811
tp1472
a(I90365
F0.063380281690140844
tp1473
a(I22812
F0.06323185011709602
tp1474
a(I40673
F0.06323185011709602
tp1475
a(I40770
F0.06323185011709602
tp1476
a(I40833
F0.06323185011709602
tp1477
a(I96029
F0.06323185011709602
tp1478
a(I96045
F0.06323185011709602
tp1479
a(I212553
F0.06323185011709602
tp1480
a(I66049
F0.062937062937062943
tp1481
a(I96037
F0.062937062937062943
tp1482
a(I189924
F0.062937062937062943
tp1483
a(I27464
F0.062790697674418611
tp1484
a(I197615
F0.055769230769230772
tp1485
a(I164005
F0.055327868852459015
tp1486
a(I212616
F0.054545454545454543
tp1487
a(I121013
F0.054368932038834951
tp1488
a(I212478
F0.053149606299212601
tp1489
a(I42697
F0.052023121387283239
tp1490
a(I89930
F0.050943396226415097
tp1491
a(I163730
F0.050347222222222224
tp1492
a(I68117
F0.049541284403669728
tp1493
a(I47033
F0.047619047619047616
tp1494
a(I90349
F0.038563829787234043
tp1495
a(I181561
F0.034659820282413351
tp1496
a(I22188
F0.033136094674556214
tp1497
a(I213389
F0.033057851239669422
tp1498
a(I23958
F0.032596041909196738
tp1499
a(I21938
F0.032520325203252036
tp1500
a(I164993
F0.030821917808219176
tp1501
a(I103049
F0.030701754385964911
tp1502
a(I90357
F0.028942115768463075
tp1503
a(I22805
F0.028403525954946131
tp1504
a(I136734
F0.027522935779816515
tp1505
a(I163665
F0.024650780608052588
tp1506
a(I40594
F0.022203947368421052
tp1507
a(I97409
F0.021243115656963022
tp1508
a(I40590
F0.021176470588235293
tp1509
a(I40596
F0.021110242376856918
tp1510
a(I12478
F0.019594121763470959
tp1511
a(I103618
F0.018867924528301886
tp1512
a(I22146
F0.018828451882845189
tp1513
a(I77988
F0.018828451882845189
tp1514
a(I21896
F0.018802228412256268
tp1515
a(I23916
F0.018802228412256268
tp1516
a(I12399
F0.018763029881862403
tp1517
a(I12560
F0.018763029881862403
tp1518
a(I12642
F0.018763029881862403
tp1519
a(I66126
F0.018763029881862403
tp1520
a(I22901
F0.018672199170124481
tp1521
a(I69492
F0.015215110178384051
tp1522
a(I225660
F0.011779041429731926
tp1523
a(I204169
F0.0071519795657726693
tp1524
a(I204690
F0.0071519795657726693
tp1525
a(I95316
F0.0070921985815602835
tp1526
a(I203634
F0.00687197760244337
tp1527
a(I95335
F0.0068250758341759357
tp1528
a(I137428
F0.0067992948879375473
tp1529
a(I137477
F0.0067992948879375473
tp1530
atp1531
a(I98125
(lp1532
(I98125
F1
tp1533
a(I98163
F1
tp1534
a(I127962
F0.98755186721991706
tp1535
a(I18398
F0.69767441860465118
tp1536
a(I133661
F0.68825910931174084
tp1537
a(I18338
F0.65614035087719302
tp1538
a(I18431
F0.65614035087719302
tp1539
a(I22356
F0.63736263736263732
tp1540
a(I22231
F0.63114754098360659
tp1541
a(I24001
F0.57788944723618085
tp1542
a(I21981
F0.57393483709273185
tp1543
a(I22838
F0.49118387909319899
tp1544
a(I22188
F0.19358407079646017
tp1545
a(I23958
F0.19323144104803494
tp1546
a(I21938
F0.19281045751633988
tp1547
a(I12392
F0.18067226890756302
tp1548
a(I12635
F0.18067226890756302
tp1549
a(I22894
F0.18048268625393493
tp1550
a(I90357
F0.1647834274952919
tp1551
a(I22805
F0.16296296296296298
tp1552
a(I163665
F0.14770932069510267
tp1553
a(I40594
F0.13469068128425998
tp1554
a(I97409
F0.13082706766917293
tp1555
a(I40590
F0.13043478260869565
tp1556
a(I40596
F0.13004484304932734
tp1557
a(I248158
F0.11418918918918919
tp1558
a(I21896
F0.11192538307794804
tp1559
a(I23916
F0.11192538307794804
tp1560
a(I225661
F0.10330578512396695
tp1561
a(I225664
F0.10244470314318975
tp1562
a(I225373
F0.094652406417112298
tp1563
a(I223937
F0.092999489013796621
tp1564
a(I224866
F0.092999489013796621
tp1565
a(I69492
F0.091789903110657822
tp1566
a(I141075
F0.089119170984455959
tp1567
a(I141441
F0.089119170984455959
tp1568
a(I224371
F0.087398373983739841
tp1569
a(I225964
F0.087398373983739841
tp1570
a(I227156
F0.087313816127375446
tp1571
a(I225659
F0.086935166994106097
tp1572
a(I225706
F0.082730560578661849
tp1573
a(I79764
F0.08055290753098189
tp1574
a(I156343
F0.079908675799086754
tp1575
a(I198063
F0.079908675799086754
tp1576
a(I155787
F0.079422382671480149
tp1577
a(I32642
F0.079401088929219599
tp1578
a(I117083
F0.079401088929219599
tp1579
a(I183680
F0.077844311377245512
tp1580
a(I10926
F0.077741786210087926
tp1581
a(I79172
F0.076301615798922806
tp1582
a(I79954
F0.076301615798922806
tp1583
a(I129028
F0.07541276215975011
tp1584
a(I225660
F0.07493025109605421
tp1585
a(I79250
F0.070619335347432019
tp1586
a(I255833
F0.06987075928917609
tp1587
a(I255988
F0.068580542264752797
tp1588
a(I182516
F0.068487727632620746
tp1589
a(I256190
F0.068476977567886663
tp1590
a(I256416
F0.068450039339103069
tp1591
a(I241069
F0.068352429869616746
tp1592
a(I79249
F0.067147192716236717
tp1593
a(I205592
F0.066179299730665636
tp1594
a(I79260
F0.065579984836997729
tp1595
a(I162383
F0.063318777292576414
tp1596
a(I246237
F0.062071330589849108
tp1597
a(I27340
F0.062051649928263987
tp1598
a(I183664
F0.061016949152542375
tp1599
a(I145051
F0.060794473229706388
tp1600
a(I225665
F0.056725146198830408
tp1601
a(I239065
F0.056509522322822352
tp1602
a(I1211
F0.056316116988176727
tp1603
a(I177310
F0.050570008769365682
tp1604
a(I95316
F0.049172102358253887
tp1605
a(I204169
F0.049051833122629583
tp1606
a(I204690
F0.049051833122629583
tp1607
a(I252279
F0.049039433771486347
tp1608
a(I95335
F0.048823234852278415
tp1609
a(I203634
F0.048626858150667675
tp1610
a(I137428
F0.048379052369077309
tp1611
a(I137477
F0.048379052369077309
tp1612
a(I219539
F0.048286214660995745
tp1613
a(I137398
F0.04718379446640316
tp1614
a(I137447
F0.04718379446640316
tp1615
a(I136920
F0.045283018867924525
tp1616
a(I158572
F0.042234018001384724
tp1617
a(I38522
F0.041136363636363638
tp1618
a(I223671
F0.039851105758703743
tp1619
a(I223685
F0.039851105758703743
tp1620
a(I223692
F0.039851105758703743
tp1621
a(I223700
F0.039851105758703743
tp1622
a(I223707
F0.039851105758703743
tp1623
a(I223678
F0.039842381786339753
tp1624
a(I30880
F0.038764643237486685
tp1625
a(I196601
F0.037456975096173316
tp1626
a(I196576
F0.037396401859712956
tp1627
a(I196584
F0.037396401859712956
tp1628
a(I196592
F0.037396401859712956
tp1629
a(I196615
F0.037396401859712956
tp1630
a(I252278
F0.036125924651642868
tp1631
a(I97597
F0.034753754802654559
tp1632
atp1633
a(I98126
(lp1634
(I98126
F1
tp1635
a(I98164
F1
tp1636
a(I22232
F0.97647058823529409
tp1637
a(I22357
F0.97647058823529409
tp1638
a(I24002
F0.97647058823529409
tp1639
a(I127963
F0.97647058823529409
tp1640
a(I21982
F0.95348837209302328
tp1641
a(I22188
F0.073170731707317069
tp1642
a(I23958
F0.071999999999999995
tp1643
a(I21938
F0.071835803876852913
tp1644
a(I90357
F0.062868369351669937
tp1645
a(I22805
F0.061716489874638382
tp1646
a(I40592
F0.059095106186518927
tp1647
a(I40594
F0.055464926590538338
tp1648
a(I163665
F0.053571428571428568
tp1649
a(I97409
F0.053083528493364562
tp1650
a(I40590
F0.05291828793774319
tp1651
a(I40596
F0.052754072924747868
tp1652
a(I186407
F0.052416052416052419
tp1653
a(I38759
F0.051809210526315791
tp1654
a(I6166
F0.050702028081123243
tp1655
a(I69202
F0.048854961832061068
tp1656
a(I11909
F0.048743335872048744
tp1657
a(I114116
F0.047940074906367043
tp1658
a(I243302
F0.047826086956521741
tp1659
a(I244267
F0.047826086956521741
tp1660
a(I6135
F0.047788873038516408
tp1661
a(I6172
F0.047788873038516408
tp1662
a(I243531
F0.047756874095513747
tp1663
a(I210332
F0.046989720998531569
tp1664
a(I248158
F0.046951646811492644
tp1665
a(I200804
F0.044077134986225897
tp1666
a(I88351
F0.04296875
tp1667
a(I109596
F0.042809364548494981
tp1668
a(I79259
F0.041589075108628179
tp1669
a(I117839
F0.039702233250620347
tp1670
a(I225661
F0.038787878787878788
tp1671
a(I145248
F0.037225042301184431
tp1672
a(I69492
F0.036534446764091857
tp1673
a(I121387
F0.036263736263736267
tp1674
a(I34825
F0.035828877005347592
tp1675
a(I129033
F0.035002692514808829
tp1676
a(I209494
F0.034908700322234157
tp1677
a(I44148
F0.03453947368421053
tp1678
a(I162385
F0.034261241970021415
tp1679
a(I140870
F0.033386327503974564
tp1680
a(I191061
F0.032435129740518959
tp1681
a(I115365
F0.032132424537487832
tp1682
a(I225706
F0.031782588668816211
tp1683
a(I79246
F0.031722054380664652
tp1684
a(I9372
F0.031029619181946404
tp1685
a(I10926
F0.030331753554502371
tp1686
a(I149445
F0.030146019783325484
tp1687
a(I173342
F0.029657089898053754
tp1688
a(I241069
F0.028237192416296894
tp1689
a(I255988
F0.027676027676027677
tp1690
a(I255833
F0.027606098063452822
tp1691
a(I182516
F0.027463651050080775
tp1692
a(I256190
F0.027287319422150885
tp1693
a(I256416
F0.027276373846770958
tp1694
a(I14179
F0.025781249999999999
tp1695
a(I79249
F0.025462962962962962
tp1696
a(I79250
F0.024856596558317401
tp1697
a(I79260
F0.024691358024691357
tp1698
a(I162383
F0.024056254626202814
tp1699
a(I145051
F0.023157894736842106
tp1700
a(I206057
F0.022290809327846366
tp1701
a(I2120
F0.022275531185743661
tp1702
a(I183664
F0.021985571968395741
tp1703
a(I1211
F0.021437578814627996
tp1704
a(I239065
F0.020866266202971863
tp1705
a(I225665
F0.020353982300884955
tp1706
a(I136920
F0.017552785550750447
tp1707
a(I204169
F0.017320427916454408
tp1708
a(I204690
F0.017320427916454408
tp1709
a(I95316
F0.017176054559232129
tp1710
a(I252279
F0.017057026476578412
tp1711
a(I203634
F0.016747018523217458
tp1712
a(I95335
F0.016633064516129031
tp1713
a(I219539
F0.016628873771730914
tp1714
a(I137428
F0.016570424303288978
tp1715
a(I137477
F0.016570424303288978
tp1716
a(I137398
F0.015920398009950248
tp1717
a(I137447
F0.015920398009950248
tp1718
a(I158572
F0.015366705471478464
tp1719
a(I38522
F0.015137614678899083
tp1720
a(I30880
F0.014829142488716958
tp1721
a(I223671
F0.014575971731448763
tp1722
a(I223685
F0.014575971731448763
tp1723
a(I223692
F0.014575971731448763
tp1724
a(I223700
F0.014575971731448763
tp1725
a(I223707
F0.014575971731448763
tp1726
a(I223678
F0.014572753367189224
tp1727
a(I196601
F0.013874719445011223
tp1728
a(I196576
F0.013852108372377266
tp1729
a(I196584
F0.013852108372377266
tp1730
a(I196592
F0.013852108372377266
tp1731
a(I196615
F0.013852108372377266
tp1732
a(I252278
F0.012422360248447204
tp1733
a(I97597
F0.012280701754385965
tp1734
atp1735
a(I98127
(lp1736
(I98127
F1
tp1737
a(I98165
F1
tp1738
a(I21983
F0.967741935483871
tp1739
a(I22233
F0.967741935483871
tp1740
a(I22358
F0.967741935483871
tp1741
a(I24003
F0.967741935483871
tp1742
a(I127964
F0.967741935483871
tp1743
a(I18403
F0.90303030303030307
tp1744
a(I18343
F0.86549707602339176
tp1745
a(I18436
F0.86549707602339176
tp1746
a(I22843
F0.8497109826589595
tp1747
a(I90349
F0.14358322744599747
tp1748
a(I22188
F0.12727272727272726
tp1749
a(I23958
F0.12653975363941769
tp1750
a(I21938
F0.12625698324022347
tp1751
a(I12392
F0.116254036598493
tp1752
a(I12635
F0.116254036598493
tp1753
a(I90357
F0.11434108527131782
tp1754
a(I22805
F0.11227402473834443
tp1755
a(I39389
F0.10601719197707736
tp1756
a(I39353
F0.10402999062792877
tp1757
a(I39408
F0.10402999062792877
tp1758
a(I40594
F0.093975903614457831
tp1759
a(I163665
F0.092799999999999994
tp1760
a(I97409
F0.091679506933744229
tp1761
a(I40590
F0.091397849462365593
tp1762
a(I186378
F0.091133004926108374
tp1763
a(I40596
F0.091117917304747317
tp1764
a(I186407
F0.090249798549556809
tp1765
a(I31084
F0.084309133489461355
tp1766
a(I11908
F0.081880212282031836
tp1767
a(I69201
F0.081509433962264149
tp1768
a(I169461
F0.081447963800904979
tp1769
a(I248158
F0.079474775397373881
tp1770
a(I162848
F0.067655786350148364
tp1771
a(I225664
F0.066076696165191739
tp1772
a(I122132
F0.063169768753525105
tp1773
a(I69492
F0.061498708010335919
tp1774
a(I129033
F0.060202450719232817
tp1775
a(I209494
F0.060042507970244421
tp1776
a(I126355
F0.058982683982683984
tp1777
a(I140870
F0.057651991614255764
tp1778
a(I162385
F0.057641459545214171
tp1779
a(I34825
F0.057489451476793248
tp1780
a(I79246
F0.05744255744255744
tp1781
a(I183680
F0.055763823805060918
tp1782
a(I225659
F0.055086848635235733
tp1783
a(I225706
F0.051959890610756607
tp1784
a(I115365
F0.051923076923076926
tp1785
a(I10926
F0.051594746716697934
tp1786
a(I9372
F0.051139005113900508
tp1787
a(I34827
F0.048352588789045782
tp1788
a(I241069
F0.045963229416466828
tp1789
a(I225660
F0.04567307692307692
tp1790
a(I255833
F0.04528763769889841
tp1791
a(I255988
F0.044721998388396453
tp1792
a(I79250
F0.044469783352337512
tp1793
a(I157934
F0.044444444444444446
tp1794
a(I256190
F0.044100119189511323
tp1795
a(I256416
F0.044082605242255761
tp1796
a(I182516
F0.04396482813749001
tp1797
a(I79260
F0.043678160919540229
tp1798
a(I79249
F0.043644716692189896
tp1799
a(I205592
F0.042330097087378643
tp1800
a(I246237
F0.040442447286553752
tp1801
a(I145051
F0.039721254355400699
tp1802
a(I162383
F0.039603960396039604
tp1803
a(I183664
F0.039275956284153007
tp1804
a(I239065
F0.038098236775818639
tp1805
a(I1211
F0.036990595611285267
tp1806
a(I225665
F0.035221602582917524
tp1807
a(I177310
F0.034208198171630788
tp1808
a(I95316
F0.03122639133719466
tp1809
a(I204169
F0.030964467005076143
tp1810
a(I204690
F0.030964467005076143
tp1811
a(I95335
F0.030912289519979895
tp1812
a(I137428
F0.030796194291437155
tp1813
a(I137477
F0.030796194291437155
tp1814
a(I203634
F0.030601922104198279
tp1815
a(I137398
F0.03052866716306776
tp1816
a(I137447
F0.03052866716306776
tp1817
a(I219539
F0.030386740331491711
tp1818
a(I252279
F0.03017241379310345
tp1819
a(I136920
F0.029873417721518986
tp1820
a(I38522
F0.027669791904870799
tp1821
a(I158572
F0.027133580705009278
tp1822
a(I30880
F0.026795284030010719
tp1823
a(I223671
F0.02664611319092711
tp1824
a(I223685
F0.02664611319092711
tp1825
a(I223692
F0.02664611319092711
tp1826
a(I223700
F0.02664611319092711
tp1827
a(I223707
F0.02664611319092711
tp1828
a(I223678
F0.026640246587406428
tp1829
a(I196601
F0.025447882736156353
tp1830
a(I196576
F0.02540650406504065
tp1831
a(I196584
F0.02540650406504065
tp1832
a(I196592
F0.02540650406504065
tp1833
a(I196615
F0.02540650406504065
tp1834
a(I252278
F0.022742935906271536
tp1835
a(I97597
F0.0218799229826711
tp1836
atp1837
a(I98128
(lp1838
(I98128
F1
tp1839
a(I98166
F1
tp1840
a(I21984
F0.96153846153846156
tp1841
a(I22234
F0.96153846153846156
tp1842
a(I22359
F0.96153846153846156
tp1843
a(I24004
F0.96153846153846156
tp1844
a(I127965
F0.96153846153846156
tp1845
a(I123037
F0.0625
tp1846
a(I12471
F0.054775280898876406
tp1847
a(I12553
F0.050505050505050504
tp1848
a(I22139
F0.045095828635851182
tp1849
a(I12392
F0.044642857142857144
tp1850
a(I12635
F0.044642857142857144
tp1851
a(I22894
F0.044593088071348944
tp1852
a(I21889
F0.042826552462526764
tp1853
a(I23909
F0.042826552462526764
tp1854
a(I136734
F0.0416243654822335
tp1855
a(I214486
F0.039195979899497489
tp1856
a(I163665
F0.03349673202614379
tp1857
a(I225663
F0.033388981636060099
tp1858
a(I40594
F0.031914893617021274
tp1859
a(I248158
F0.031779661016949151
tp1860
a(I14180
F0.03167062549485352
tp1861
a(I97409
F0.031347962382445138
tp1862
a(I40590
F0.03125
tp1863
a(I40596
F0.031152647975077882
tp1864
a(I78138
F0.030023094688221709
tp1865
a(I78525
F0.030023094688221709
tp1866
a(I148246
F0.027896995708154508
tp1867
a(I34837
F0.027777777777777776
tp1868
a(I3512
F0.027758501040943788
tp1869
a(I102316
F0.027426160337552744
tp1870
a(I141970
F0.026734563971992361
tp1871
a(I165372
F0.026402640264026403
tp1872
a(I22901
F0.02615278733654508
tp1873
a(I165438
F0.02600780234070221
tp1874
a(I225661
F0.025000000000000001
tp1875
a(I178756
F0.024699176694110196
tp1876
a(I179486
F0.024699176694110196
tp1877
a(I180215
F0.024699176694110196
tp1878
a(I180944
F0.024699176694110196
tp1879
a(I113195
F0.023682652457075192
tp1880
a(I69492
F0.02358490566037736
tp1881
a(I225659
F0.02221100454316002
tp1882
a(I225373
F0.021428571428571429
tp1883
a(I227156
F0.020634920634920634
tp1884
a(I223937
F0.020397489539748955
tp1885
a(I224866
F0.020397489539748955
tp1886
a(I183680
F0.020388809862494073
tp1887
a(I225706
F0.019399538106235566
tp1888
a(I10926
F0.018069424631478839
tp1889
a(I177314
F0.017482517482517484
tp1890
a(I255833
F0.016942148760330577
tp1891
a(I255988
F0.016727866177070585
tp1892
a(I182516
F0.01659919028340081
tp1893
a(I256190
F0.016492357200321803
tp1894
a(I256416
F0.016485725774024931
tp1895
a(I225660
F0.016200891049007696
tp1896
a(I155502
F0.0161892901618929
tp1897
a(I241069
F0.016155088852988692
tp1898
a(I157934
F0.015950920245398775
tp1899
a(I205592
F0.015330188679245283
tp1900
a(I79260
F0.015092879256965945
tp1901
a(I14179
F0.01487279843444227
tp1902
a(I162383
F0.014471243042671614
tp1903
a(I145051
F0.014069644741470278
tp1904
a(I183664
F0.013783597518952447
tp1905
a(I2116
F0.013605442176870748
tp1906
a(I246237
F0.013588850174216028
tp1907
a(I225665
F0.013010053222945003
tp1908
a(I239065
F0.012674271229404309
tp1909
a(I1211
F0.01231060606060606
tp1910
a(I177310
F0.012184249628528975
tp1911
a(I204169
F0.010717019647869355
tp1912
a(I204690
F0.010717019647869355
tp1913
a(I203634
F0.010424612255275871
tp1914
a(I95316
F0.010371869466228182
tp1915
a(I219539
F0.010350921484473618
tp1916
a(I95335
F0.01009845998485231
tp1917
a(I137428
F0.010060362173038229
tp1918
a(I137477
F0.010060362173038229
tp1919
a(I137398
F0.0099725754176015948
tp1920
a(I137447
F0.0099725754176015948
tp1921
a(I252279
F0.0099413713994392049
tp1922
a(I136920
F0.0099287169042769855
tp1923
a(I38522
F0.009885057471264367
tp1924
a(I223671
F0.0095174856131031438
tp1925
a(I223685
F0.0095174856131031438
tp1926
a(I223692
F0.0095174856131031438
tp1927
a(I223700
F0.0095174856131031438
tp1928
a(I223707
F0.0095174856131031438
tp1929
a(I223678
F0.0095153795087408715
tp1930
a(I30880
F0.0088209982788296035
tp1931
a(I196601
F0.00858193706579485
tp1932
a(I196576
F0.0085679314565483469
tp1933
a(I196584
F0.0085679314565483469
tp1934
a(I196592
F0.0085679314565483469
tp1935
a(I196615
F0.0085679314565483469
tp1936
a(I252278
F0.0082944530844997408
tp1937
a(I97597
F0.0070212392487274001
tp1938
atp1939
a(I98129
(lp1940
(I98129
F1
tp1941
a(I98167
F1
tp1942
a(I21985
F0.96551724137931039
tp1943
a(I22235
F0.96551724137931039
tp1944
a(I22360
F0.96551724137931039
tp1945
a(I24005
F0.96551724137931039
tp1946
a(I127966
F0.96551724137931039
tp1947
a(I18349
F0.65714285714285714
tp1948
a(I18408
F0.65714285714285714
tp1949
a(I18442
F0.65714285714285714
tp1950
a(I40594
F0.11102172164119067
tp1951
a(I97409
F0.10802469135802469
tp1952
a(I40590
F0.1076923076923077
tp1953
a(I40596
F0.10736196319018405
tp1954
a(I163665
F0.094861660079051377
tp1955
a(I248158
F0.084362139917695478
tp1956
a(I162848
F0.076376554174067496
tp1957
a(I3511
F0.072979493365500608
tp1958
a(I160085
F0.072303206997084549
tp1959
a(I136280
F0.070880094506792682
tp1960
a(I149669
F0.070629782224838136
tp1961
a(I162385
F0.068253968253968247
tp1962
a(I69492
F0.068006182380216385
tp1963
a(I227156
F0.066631962519521082
tp1964
a(I129033
F0.066348195329087048
tp1965
a(I225659
F0.065573770491803282
tp1966
a(I126355
F0.065229110512129374
tp1967
a(I79593
F0.064500246184145738
tp1968
a(I79764
F0.063860667634252535
tp1969
a(I165590
F0.063751317175974709
tp1970
a(I140870
F0.062597809076682318
tp1971
a(I79246
F0.061630218687872766
tp1972
a(I79172
F0.061503416856492028
tp1973
a(I79954
F0.061503416856492028
tp1974
a(I10926
F0.061004223369310183
tp1975
a(I173652
F0.060530265132566284
tp1976
a(I19395
F0.060469765117441281
tp1977
a(I83570
F0.059910134797803292
tp1978
a(I191061
F0.059459459459459463
tp1979
a(I183680
F0.059207459207459207
tp1980
a(I225706
F0.059171597633136092
tp1981
a(I115365
F0.059021113243761997
tp1982
a(I9372
F0.057513914656771803
tp1983
a(I155787
F0.055404178019981834
tp1984
a(I177314
F0.053356282271944923
tp1985
a(I34827
F0.052429667519181586
tp1986
a(I255833
F0.052181002853648593
tp1987
a(I79260
F0.051763803680981595
tp1988
a(I255988
F0.051529790660225443
tp1989
a(I241069
F0.051455923414439567
tp1990
a(I79250
F0.051291793313069906
tp1991
a(I182516
F0.05113863363963244
tp1992
a(I135441
F0.051057040287195848
tp1993
a(I115439
F0.050955414012738856
tp1994
a(I256190
F0.050813815005954742
tp1995
a(I256416
F0.050793650793650794
tp1996
a(I155502
F0.050736497545008183
tp1997
a(I79249
F0.050516647531572902
tp1998
a(I157934
F0.049576783555018135
tp1999
a(I225660
F0.049500998003992019
tp2000
a(I162383
F0.048493754592211606
tp2001
a(I196257
F0.048387096774193547
tp2002
a(I14179
F0.047490347490347487
tp2003
a(I183664
F0.045765027322404374
tp2004
a(I145051
F0.04415855354659249
tp2005
a(I246237
F0.04412271630472251
tp2006
a(I1211
F0.043928459366175086
tp2007
a(I146160
F0.042857142857142858
tp2008
a(I239065
F0.040803515379786569
tp2009
a(I2120
F0.040677966101694912
tp2010
a(I225665
F0.037752414398595259
tp2011
a(I177310
F0.037363930567814063
tp2012
a(I204169
F0.036839430894308946
tp2013
a(I204690
F0.036839430894308946
tp2014
a(I95316
F0.036533131771227009
tp2015
a(I203634
F0.036455696202531647
tp2016
a(I95335
F0.036208197133517729
tp2017
a(I137428
F0.036072144288577156
tp2018
a(I137477
F0.036072144288577156
tp2019
a(I219539
F0.035938678059814023
tp2020
a(I252279
F0.035777721390510026
tp2021
a(I137398
F0.035758629252545318
tp2022
a(I137447
F0.035758629252545318
tp2023
a(I136920
F0.03468354430379747
tp2024
a(I158572
F0.032258064516129031
tp2025
a(I38522
F0.031307129798903106
tp2026
a(I223671
F0.030603258476442095
tp2027
a(I223685
F0.030603258476442095
tp2028
a(I223692
F0.030603258476442095
tp2029
a(I223700
F0.030603258476442095
tp2030
a(I223707
F0.030603258476442095
tp2031
a(I223678
F0.03059652212194585
tp2032
a(I30880
F0.028663101604278075
tp2033
a(I196601
F0.028060187067913786
tp2034
a(I196576
F0.028014616321559074
tp2035
a(I196584
F0.028014616321559074
tp2036
a(I196592
F0.028014616321559074
tp2037
a(I196615
F0.028014616321559074
tp2038
a(I252278
F0.02725547697084699
tp2039
a(I97597
F0.025205671276037109
tp2040
atp2041
a(I98130
(lp2042
(I98130
F1
tp2043
a(I98168
F1
tp2044
a(I21986
F0.98039215686274506
tp2045
a(I22236
F0.98039215686274506
tp2046
a(I22361
F0.98039215686274506
tp2047
a(I24006
F0.98039215686274506
tp2048
a(I127967
F0.98039215686274506
tp2049
a(I103049
F0.10405257393209201
tp2050
a(I197612
F0.08073196986006459
tp2051
a(I48131
F0.063613231552162849
tp2052
a(I11913
F0.061359867330016582
tp2053
a(I162872
F0.060897435897435896
tp2054
a(I145436
F0.059999999999999998
tp2055
a(I40594
F0.059822150363783348
tp2056
a(I69206
F0.059247397918334666
tp2057
a(I218378
F0.05905511811023622
tp2058
a(I217899
F0.059008654602675056
tp2059
a(I218845
F0.059008654602675056
tp2060
a(I219219
F0.059008654602675056
tp2061
a(I97409
F0.058094500387296667
tp2062
a(I40590
F0.057915057915057917
tp2063
a(I69202
F0.057794676806083647
tp2064
a(I40596
F0.057736720554272515
tp2065
a(I11909
F0.057663125948406675
tp2066
a(I11908
F0.05764796310530361
tp2067
a(I69201
F0.057383320581484314
tp2068
a(I210332
F0.055596196049743966
tp2069
a(I154606
F0.053763440860215055
tp2070
a(I154640
F0.053763440860215055
tp2071
a(I154575
F0.053634438955539876
tp2072
a(I154534
F0.051475634866163349
tp2073
a(I79259
F0.047589616810877623
tp2074
a(I250142
F0.046382189239332093
tp2075
a(I162848
F0.044829647340107588
tp2076
a(I241066
F0.044663573085846869
tp2077
a(I108704
F0.04414361389052384
tp2078
a(I34829
F0.043804034582132563
tp2079
a(I137249
F0.043404735062006768
tp2080
a(I69492
F0.040519480519480518
tp2081
a(I34825
F0.03991484832357637
tp2082
a(I79246
F0.038712921065862244
tp2083
a(I57309
F0.038702928870292884
tp2084
a(I10926
F0.037896731406916156
tp2085
a(I47934
F0.03777437468095967
tp2086
a(I79593
F0.037698412698412696
tp2087
a(I79764
F0.037018996590355575
tp2088
a(I129028
F0.036496350364963501
tp2089
a(I27343
F0.03619047619047619
tp2090
a(I173342
F0.036094400740397964
tp2091
a(I155787
F0.035845588235294115
tp2092
a(I149445
F0.035714285714285712
tp2093
a(I225706
F0.035321100917431195
tp2094
a(I79172
F0.035272560696289507
tp2095
a(I79954
F0.035272560696289507
tp2096
a(I32642
F0.034148592524227042
tp2097
a(I134465
F0.033662477558348294
tp2098
a(I34827
F0.033606204222317963
tp2099
a(I79249
F0.032818532818532815
tp2100
a(I135441
F0.032608695652173912
tp2101
a(I79260
F0.032444959443800693
tp2102
a(I79250
F0.032146957520091848
tp2103
a(I241069
F0.030108390204737052
tp2104
a(I14179
F0.030007794232268122
tp2105
a(I246237
F0.028859527121001392
tp2106
a(I27340
F0.028790087463556852
tp2107
a(I162383
F0.028064992614475627
tp2108
a(I206057
F0.027768255056564963
tp2109
a(I2120
F0.027749229188078109
tp2110
a(I239065
F0.02689022461246441
tp2111
a(I1211
F0.026149968494013864
tp2112
a(I95316
F0.022761760242792108
tp2113
a(I204169
F0.022692503824579296
tp2114
a(I204690
F0.022692503824579296
tp2115
a(I225665
F0.022653721682847898
tp2116
a(I177310
F0.022485207100591716
tp2117
a(I95335
F0.022463402322059567
tp2118
a(I137428
F0.022378677395021373
tp2119
a(I137477
F0.022378677395021373
tp2120
a(I203634
F0.022357723577235773
tp2121
a(I219539
F0.022199798183652877
tp2122
a(I137398
F0.021419676214196763
tp2123
a(I137447
F0.021419676214196763
tp2124
a(I252279
F0.021384928716904276
tp2125
a(I136920
F0.019801980198019802
tp2126
a(I158572
F0.018613308515588647
tp2127
a(I38522
F0.018102658111824016
tp2128
a(I223671
F0.017207147584381206
tp2129
a(I223685
F0.017207147584381206
tp2130
a(I223692
F0.017207147584381206
tp2131
a(I223700
F0.017207147584381206
tp2132
a(I223707
F0.017207147584381206
tp2133
a(I223678
F0.017203352448169385
tp2134
a(I30880
F0.016952789699570814
tp2135
a(I97597
F0.016154521510096578
tp2136
a(I196576
F0.016073245167853509
tp2137
a(I196584
F0.016073245167853509
tp2138
a(I196592
F0.016073245167853509
tp2139
a(I196615
F0.016073245167853509
tp2140
a(I196601
F0.015892420537897311
tp2141
a(I252278
F0.014830143128125538
tp2142
atp2143
a(I98131
(lp2144
(I98131
F1
tp2145
a(I98169
F1
tp2146
a(I21987
F0.97037037037037033
tp2147
a(I22237
F0.97037037037037033
tp2148
a(I22362
F0.97037037037037033
tp2149
a(I24007
F0.97037037037037033
tp2150
a(I127968
F0.97037037037037033
tp2151
a(I12553
F0.115995115995116
tp2152
a(I22188
F0.11327231121281464
tp2153
a(I23958
F0.11273957158962795
tp2154
a(I21938
F0.1124859392575928
tp2155
a(I12392
F0.10652173913043478
tp2156
a(I12635
F0.10652173913043478
tp2157
a(I22894
F0.10640608034744843
tp2158
a(I136734
F0.098116947472745297
tp2159
a(I90357
F0.094869312681510165
tp2160
a(I22805
F0.093155893536121678
tp2161
a(I40592
F0.088262056414922657
tp2162
a(I40594
F0.084814216478190624
tp2163
a(I97409
F0.082043343653250778
tp2164
a(I163665
F0.081927710843373497
tp2165
a(I40590
F0.081790123456790126
tp2166
a(I40596
F0.081538461538461532
tp2167
a(I48131
F0.07976490344248531
tp2168
a(I59293
F0.073338426279602756
tp2169
a(I131363
F0.073338426279602756
tp2170
a(I248158
F0.072272411396803335
tp2171
a(I187060
F0.060240963855421686
tp2172
a(I187050
F0.060202788339670466
tp2173
a(I141970
F0.060037523452157598
tp2174
a(I162848
F0.057007125890736345
tp2175
a(I108704
F0.056758338209479231
tp2176
a(I69492
F0.052767718572167617
tp2177
a(I162385
F0.052603613177470775
tp2178
a(I79064
F0.05199781061850027
tp2179
a(I79846
F0.05199781061850027
tp2180
a(I129033
F0.05176093916755603
tp2181
a(I225659
F0.051397205588822353
tp2182
a(I79593
F0.050445103857566766
tp2183
a(I79764
F0.050048590864917399
tp2184
a(I79246
F0.049000000000000002
tp2185
a(I155787
F0.047662694775435381
tp2186
a(I10926
F0.047596606974552307
tp2187
a(I183680
F0.0473511486169714
tp2188
a(I79172
F0.047053449063499314
tp2189
a(I79954
F0.047053449063499314
tp2190
a(I115365
F0.04580520732883317
tp2191
a(I225706
F0.045682960255824578
tp2192
a(I9372
F0.044734389561975771
tp2193
a(I34827
F0.043347639484978544
tp2194
a(I79260
F0.041586445899114366
tp2195
a(I255833
F0.040507364975450079
tp2196
a(I182516
F0.04011231448054553
tp2197
a(I255988
F0.040000000000000001
tp2198
a(I79249
F0.039953899346907414
tp2199
a(I256190
F0.039856516540454363
tp2200
a(I256416
F0.039840637450199202
tp2201
a(I157934
F0.039287160793843659
tp2202
a(I225660
F0.038893344025661587
tp2203
a(I79250
F0.038432267884322677
tp2204
a(I162383
F0.036818851251840944
tp2205
a(I246237
F0.036382536382536385
tp2206
a(I183664
F0.036326250856751202
tp2207
a(I27340
F0.034420289855072464
tp2208
a(I206053
F0.033747779751332148
tp2209
a(I239065
F0.033743298643960896
tp2210
a(I2116
F0.033711852377572744
tp2211
a(I1211
F0.033626649905719674
tp2212
a(I206057
F0.032367972742759793
tp2213
a(I2120
F0.032345931222335714
tp2214
a(I225665
F0.0302496328928047
tp2215
a(I204169
F0.028491477995421014
tp2216
a(I204690
F0.028491477995421014
tp2217
a(I177310
F0.028301886792452831
tp2218
a(I252279
F0.028222730739893211
tp2219
a(I203634
F0.028136882129277566
tp2220
a(I95316
F0.027994955863808322
tp2221
a(I219539
F0.027938585451799648
tp2222
a(I95335
F0.027686886483765417
tp2223
a(I137428
F0.027582748244734202
tp2224
a(I137477
F0.027582748244734202
tp2225
a(I137398
F0.027342779020631369
tp2226
a(I137447
F0.027342779020631369
tp2227
a(I136920
F0.025582573454913882
tp2228
a(I158572
F0.025104602510460251
tp2229
a(I38522
F0.023793182338137726
tp2230
a(I30880
F0.023161055114733004
tp2231
a(I223671
F0.022462012772517068
tp2232
a(I223685
F0.022462012772517068
tp2233
a(I223692
F0.022462012772517068
tp2234
a(I223700
F0.022462012772517068
tp2235
a(I223707
F0.022462012772517068
tp2236
a(I223678
F0.022457067371202115
tp2237
a(I196601
F0.021995926680244398
tp2238
a(I196576
F0.021960146400976006
tp2239
a(I196584
F0.021960146400976006
tp2240
a(I196592
F0.021960146400976006
tp2241
a(I196615
F0.021960146400976006
tp2242
a(I97597
F0.019803715387311602
tp2243
a(I252278
F0.01929371231696813
tp2244
atp2245
a(I98132
(lp2246
(I98132
F1
tp2247
a(I98170
F1
tp2248
a(I21988
F0.94999999999999996
tp2249
a(I22238
F0.94999999999999996
tp2250
a(I22363
F0.94999999999999996
tp2251
a(I24008
F0.94999999999999996
tp2252
a(I127969
F0.94999999999999996
tp2253
a(I164005
F0.065439672801635998
tp2254
a(I14189
F0.039167686658506728
tp2255
a(I22188
F0.039007092198581561
tp2256
a(I23958
F0.038372093023255817
tp2257
a(I21938
F0.038283062645011599
tp2258
a(I90357
F0.033898305084745763
tp2259
a(I22805
F0.032258064516129031
tp2260
a(I163665
F0.027891714520098441
tp2261
a(I7190
F0.027049873203719356
tp2262
a(I104061
F0.026113671274961597
tp2263
a(I162872
F0.026016260162601626
tp2264
a(I217899
F0.025559105431309903
tp2265
a(I248158
F0.023305084745762712
tp2266
a(I154097
F0.022889842632331903
tp2267
a(I217888
F0.022759601706970129
tp2268
a(I172915
F0.022743425728500355
tp2269
a(I168431
F0.022053756030323914
tp2270
a(I41153
F0.02202339986235375
tp2271
a(I109312
F0.02202339986235375
tp2272
a(I109307
F0.02188782489740082
tp2273
a(I48773
F0.021625163826998691
tp2274
a(I48811
F0.021582733812949641
tp2275
a(I48859
F0.021582733812949641
tp2276
a(I186660
F0.021419009370816599
tp2277
a(I186862
F0.021136063408190225
tp2278
a(I15265
F0.021113243761996161
tp2279
a(I16627
F0.021099744245524295
tp2280
a(I225664
F0.021097046413502109
tp2281
a(I186501
F0.021038790269559501
tp2282
a(I186613
F0.021038790269559501
tp2283
a(I186548
F0.020846905537459284
tp2284
a(I186797
F0.020846905537459284
tp2285
a(I225661
F0.020795107033639144
tp2286
a(I178756
F0.020330368487928845
tp2287
a(I179486
F0.020330368487928845
tp2288
a(I180215
F0.020330368487928845
tp2289
a(I180944
F0.020330368487928845
tp2290
a(I186710
F0.020151133501259445
tp2291
a(I34829
F0.019825072886297375
tp2292
a(I69492
F0.01889763779527559
tp2293
a(I206055
F0.018890200708382526
tp2294
a(I168561
F0.018508132361189006
tp2295
a(I137249
F0.018212862834376779
tp2296
a(I109302
F0.017689331122166942
tp2297
a(I183616
F0.017467248908296942
tp2298
a(I79246
F0.017258883248730966
tp2299
a(I141075
F0.017112299465240642
tp2300
a(I141441
F0.017112299465240642
tp2301
a(I225659
F0.016666666666666666
tp2302
a(I79593
F0.016524787180771158
tp2303
a(I83570
F0.016334864726901481
tp2304
a(I79764
F0.016224188790560472
tp2305
a(I225706
F0.016203703703703703
tp2306
a(I27343
F0.01536983669548511
tp2307
a(I10926
F0.015259895088221268
tp2308
a(I79172
F0.015242494226327945
tp2309
a(I79954
F0.015242494226327945
tp2310
a(I225660
F0.015040650406504066
tp2311
a(I129028
F0.014692378328741965
tp2312
a(I79250
F0.013461538461538462
tp2313
a(I79249
F0.013183404420317953
tp2314
a(I79260
F0.012800620636152055
tp2315
a(I14179
F0.012553942722636328
tp2316
a(I162383
F0.011895910780669145
tp2317
a(I27340
F0.011725906925613778
tp2318
a(I206057
F0.01171605789110958
tp2319
a(I2120
F0.011707988980716254
tp2320
a(I145051
F0.011271574498062698
tp2321
a(I225665
F0.010657193605683837
tp2322
a(I204169
F0.0089422585590189056
tp2323
a(I204690
F0.0089422585590189056
tp2324
a(I252279
F0.0089399744572158362
tp2325
a(I95316
F0.0088674942994679505
tp2326
a(I203634
F0.0086558044806517315
tp2327
a(I95335
F0.0085967130214917829
tp2328
a(I219539
F0.0085945399393326585
tp2329
a(I137428
F0.0085642317380352651
tp2330
a(I137477
F0.0085642317380352651
tp2331
a(I38522
F0.0075896964121435146
tp2332
a(I223671
F0.0073073516386182461
tp2333
a(I223685
F0.0073073516386182461
tp2334
a(I223692
F0.0073073516386182461
tp2335
a(I223700
F0.0073073516386182461
tp2336
a(I223707
F0.0073073516386182461
tp2337
a(I223678
F0.0073057338941775515
tp2338
a(I30880
F0.0071059431524547806
tp2339
a(I196601
F0.0067470864853813126
tp2340
a(I196576
F0.0067360685854255973
tp2341
a(I196584
F0.0067360685854255973
tp2342
a(I196592
F0.0067360685854255973
tp2343
a(I196615
F0.0067360685854255973
tp2344
a(I252278
F0.0063947459384721744
tp2345
a(I97597
F0.0057976106816584683
tp2346
atp2347
a(I98133
(lp2348
(I98133
F1
tp2349
a(I98171
F1
tp2350
a(I21989
F0.97520661157024791
tp2351
a(I22239
F0.97520661157024791
tp2352
a(I22364
F0.97520661157024791
tp2353
a(I24009
F0.97520661157024791
tp2354
a(I127970
F0.97520661157024791
tp2355
a(I22139
F0.1006637168141593
tp2356
a(I22894
F0.098360655737704916
tp2357
a(I21889
F0.095688748685594113
tp2358
a(I23909
F0.095688748685594113
tp2359
a(I136734
F0.089641434262948211
tp2360
a(I40594
F0.088452088452088448
tp2361
a(I97409
F0.083790133124510571
tp2362
a(I40590
F0.083528493364558934
tp2363
a(I40596
F0.083268482490272369
tp2364
a(I210331
F0.080935251798561147
tp2365
a(I163665
F0.078478964401294496
tp2366
a(I11908
F0.071483474250576481
tp2367
a(I69201
F0.071155317521040554
tp2368
a(I2190
F0.06939090208172706
tp2369
a(I59293
F0.069177555726364331
tp2370
a(I131363
F0.069177555726364331
tp2371
a(I164932
F0.068027210884353748
tp2372
a(I194375
F0.067975830815709973
tp2373
a(I248158
F0.065505226480836232
tp2374
a(I6135
F0.063649222065063654
tp2375
a(I6172
F0.063649222065063654
tp2376
a(I183666
F0.063469675599435824
tp2377
a(I200804
F0.061601642710472276
tp2378
a(I225661
F0.056159420289855072
tp2379
a(I69492
F0.052604166666666667
tp2380
a(I225373
F0.050708833151581242
tp2381
a(I223937
F0.049376299376299379
tp2382
a(I224866
F0.049376299376299379
tp2383
a(I129033
F0.049329758713136732
tp2384
a(I183678
F0.047546012269938653
tp2385
a(I225659
F0.0465
tp2386
a(I191061
F0.045725646123260438
tp2387
a(I79593
F0.045071817731550272
tp2388
a(I10926
F0.044444444444444446
tp2389
a(I79764
F0.044260700389105061
tp2390
a(I225706
F0.043577981651376149
tp2391
a(I183680
F0.043233082706766915
tp2392
a(I155787
F0.043158861340679519
tp2393
a(I173342
F0.042012927054478302
tp2394
a(I79172
F0.041609510745313216
tp2395
a(I79954
F0.041609510745313216
tp2396
a(I34827
F0.040464916056823071
tp2397
a(I177314
F0.039930555555555552
tp2398
a(I255833
F0.038177339901477834
tp2399
a(I255988
F0.037697608431293071
tp2400
a(I182516
F0.037409493161705554
tp2401
a(I256190
F0.037170263788968823
tp2402
a(I256416
F0.037155413503795448
tp2403
a(I79250
F0.037051184110007643
tp2404
a(I241069
F0.03691813804173355
tp2405
a(I135441
F0.036516853932584269
tp2406
a(I225660
F0.036188178528347409
tp2407
a(I14179
F0.035408560311284046
tp2408
a(I79249
F0.034973097617217522
tp2409
a(I162383
F0.033566949465142014
tp2410
a(I246237
F0.033321763276640055
tp2411
a(I183664
F0.032944406314344546
tp2412
a(I27340
F0.03271537622682661
tp2413
a(I145051
F0.032179083595662822
tp2414
a(I206057
F0.032169746748802193
tp2415
a(I2120
F0.032147742818057455
tp2416
a(I1211
F0.029874213836477988
tp2417
a(I239065
F0.029652996845425869
tp2418
a(I177310
F0.029028436018957347
tp2419
a(I225665
F0.027647058823529413
tp2420
a(I204169
F0.026235354049923585
tp2421
a(I204690
F0.026235354049923585
tp2422
a(I95316
F0.02601667087648396
tp2423
a(I203634
F0.025888324873096447
tp2424
a(I95335
F0.025712125031509957
tp2425
a(I219539
F0.025705645161290324
tp2426
a(I137398
F0.025647410358565739
tp2427
a(I137447
F0.025647410358565739
tp2428
a(I137428
F0.025615268709191362
tp2429
a(I137477
F0.025615268709191362
tp2430
a(I252279
F0.025445292620865138
tp2431
a(I136920
F0.024892049784099569
tp2432
a(I38522
F0.022461608984643593
tp2433
a(I158572
F0.022325581395348838
tp2434
a(I30880
F0.021473051320592657
tp2435
a(I223671
F0.021403353927625771
tp2436
a(I223685
F0.021403353927625771
tp2437
a(I223692
F0.021403353927625771
tp2438
a(I223700
F0.021403353927625771
tp2439
a(I223707
F0.021403353927625771
tp2440
a(I223678
F0.021398632252371499
tp2441
a(I196576
F0.02056607615556913
tp2442
a(I196584
F0.02056607615556913
tp2443
a(I196592
F0.02056607615556913
tp2444
a(I196615
F0.02056607615556913
tp2445
a(I196601
F0.020391517128874388
tp2446
a(I252278
F0.018461007591442376
tp2447
a(I97597
F0.017706872370266479
tp2448
atp2449
a(I98134
(lp2450
(I98134
F1
tp2451
a(I98172
F1
tp2452
a(I18353
F0.94736842105263153
tp2453
a(I18378
F0.94736842105263153
tp2454
a(I18410
F0.94736842105263153
tp2455
a(I18446
F0.94736842105263153
tp2456
a(I22850
F0.94736842105263153
tp2457
a(I66074
F0.94736842105263153
tp2458
a(I90055
F0.94736842105263153
tp2459
a(I131269
F0.94736842105263153
tp2460
a(I21990
F0.92307692307692313
tp2461
a(I22240
F0.92307692307692313
tp2462
a(I22365
F0.92307692307692313
tp2463
a(I24010
F0.92307692307692313
tp2464
a(I127971
F0.92307692307692313
tp2465
a(I223900
F0.045454545454545456
tp2466
a(I224829
F0.045454545454545456
tp2467
a(I208802
F0.030993618960802188
tp2468
a(I208778
F0.029810298102981029
tp2469
a(I208814
F0.029810298102981029
tp2470
a(I194733
F0.029069767441860465
tp2471
a(I211018
F0.02866779089376054
tp2472
a(I177552
F0.028428093645484948
tp2473
a(I45598
F0.028404344193817876
tp2474
a(I46212
F0.028404344193817876
tp2475
a(I220270
F0.028404344193817876
tp2476
a(I20287
F0.028380634390651086
tp2477
a(I30331
F0.028380634390651086
tp2478
a(I120370
F0.028380634390651086
tp2479
a(I193321
F0.028380634390651086
tp2480
a(I181652
F0.028356964136780651
tp2481
a(I209816
F0.028356964136780651
tp2482
a(I183549
F0.02704791344667697
tp2483
a(I84163
F0.026985350809560524
tp2484
a(I153807
F0.026985350809560524
tp2485
a(I59586
F0.024853801169590642
tp2486
a(I12478
F0.023109243697478993
tp2487
a(I103618
F0.023093072078376489
tp2488
a(I22146
F0.023044692737430168
tp2489
a(I77988
F0.023044692737430168
tp2490
a(I21896
F0.023012552301255231
tp2491
a(I23916
F0.023012552301255231
tp2492
a(I12399
F0.022964509394572025
tp2493
a(I12560
F0.022964509394572025
tp2494
a(I12642
F0.022964509394572025
tp2495
a(I66126
F0.022964509394572025
tp2496
a(I22901
F0.022853185595567867
tp2497
a(I246238
F0.021941489361702128
tp2498
a(I217542
F0.021428571428571429
tp2499
a(I225664
F0.021122510561255279
tp2500
a(I196235
F0.021113243761996161
tp2501
a(I2125
F0.020915032679738561
tp2502
a(I225661
F0.020820575627679118
tp2503
a(I14475
F0.020612117426608369
tp2504
a(I3511
F0.019838809671419714
tp2505
a(I225373
F0.019337016574585635
tp2506
a(I34829
F0.019253208868144692
tp2507
a(I196238
F0.019119351100811123
tp2508
a(I196241
F0.018954623779437105
tp2509
a(I223937
F0.018401682439537329
tp2510
a(I224866
F0.018401682439537329
tp2511
a(I141075
F0.018220793140407289
tp2512
a(I141441
F0.018220793140407289
tp2513
a(I196225
F0.018121911037891267
tp2514
a(I196249
F0.018121911037891267
tp2515
a(I168944
F0.017954298150163223
tp2516
a(I224371
F0.017857142857142856
tp2517
a(I225964
F0.017857142857142856
tp2518
a(I69492
F0.017847769028871391
tp2519
a(I206054
F0.017241379310344827
tp2520
a(I225659
F0.01719777440566515
tp2521
a(I2117
F0.016923076923076923
tp2522
a(I27343
F0.015873015873015872
tp2523
a(I225660
F0.014640097600650671
tp2524
a(I79250
F0.013081954597922277
tp2525
a(I27340
F0.012848751835535976
tp2526
a(I79249
F0.012800620636152055
tp2527
a(I206057
F0.012073128665056916
tp2528
a(I2120
F0.012064805239572561
tp2529
a(I183664
F0.011398963730569948
tp2530
a(I225665
F0.010364228605270951
tp2531
a(I1211
F0.01012337867763366
tp2532
a(I204169
F0.0086889854331714794
tp2533
a(I204690
F0.0086889854331714794
tp2534
a(I95316
F0.0086163203243791175
tp2535
a(I203634
F0.0084033613445378148
tp2536
a(I95335
F0.0083459787556904395
tp2537
a(I219539
F0.0083438685208596704
tp2538
a(I137428
F0.0083144368858654571
tp2539
a(I137477
F0.0083144368858654571
tp2540
a(I137398
F0.008241758241758242
tp2541
a(I137447
F0.008241758241758242
tp2542
a(I38522
F0.0075931891394385642
tp2543
a(I223671
F0.0073105892778023924
tp2544
a(I223685
F0.0073105892778023924
tp2545
a(I223692
F0.0073105892778023924
tp2546
a(I223700
F0.0073105892778023924
tp2547
a(I223707
F0.0073105892778023924
tp2548
a(I223678
F0.0073089700996677737
tp2549
a(I97597
F0.005799648506151142
tp2550
atp2551
a(I98135
(lp2552
(I98135
F1
tp2553
a(I98173
F1
tp2554
a(I66075
F0.93939393939393945
tp2555
a(I21991
F0.88235294117647056
tp2556
a(I22241
F0.88235294117647056
tp2557
a(I22366
F0.88235294117647056
tp2558
a(I24011
F0.88235294117647056
tp2559
a(I127972
F0.88235294117647056
tp2560
a(I18379
F0.8571428571428571
tp2561
a(I90056
F0.8571428571428571
tp2562
a(I131270
F0.8571428571428571
tp2563
a(I207709
F0.7142857142857143
tp2564
a(I22851
F0.66666666666666663
tp2565
a(I18354
F0.58823529411764708
tp2566
a(I18447
F0.41095890410958902
tp2567
a(I18411
F0.34883720930232559
tp2568
a(I154777
F0.052173913043478258
tp2569
a(I253661
F0.052173913043478258
tp2570
a(I252081
F0.049423393739703461
tp2571
a(I252351
F0.049423393739703461
tp2572
a(I253896
F0.049423393739703461
tp2573
a(I225764
F0.048859934853420196
tp2574
a(I25115
F0.04707792207792208
tp2575
a(I22188
F0.034400948991696323
tp2576
a(I23958
F0.033838973162193697
tp2577
a(I21938
F0.033760186263096625
tp2578
a(I253111
F0.033519553072625698
tp2579
a(I237570
F0.032397408207343416
tp2580
a(I137267
F0.030612244897959183
tp2581
a(I137256
F0.028708133971291867
tp2582
a(I225698
F0.028248587570621469
tp2583
a(I48131
F0.026863084922010397
tp2584
a(I163665
F0.026359143327841845
tp2585
a(I160822
F0.025402201524132091
tp2586
a(I225663
F0.025231286795626577
tp2587
a(I174755
F0.024213075060532687
tp2588
a(I104061
F0.023094688221709007
tp2589
a(I6166
F0.022906793048973143
tp2590
a(I11908
F0.022691705790297341
tp2591
a(I11909
F0.022376543209876542
tp2592
a(I248158
F0.021970233876683204
tp2593
a(I34837
F0.021520803443328552
tp2594
a(I6135
F0.020893371757925071
tp2595
a(I6172
F0.020893371757925071
tp2596
a(I12478
F0.020322354590049056
tp2597
a(I22146
F0.02026554856743536
tp2598
a(I3512
F0.020237264480111653
tp2599
a(I21896
F0.020237264480111653
tp2600
a(I23916
F0.020237264480111653
tp2601
a(I12399
F0.020194986072423399
tp2602
a(I12560
F0.020194986072423399
tp2603
a(I12642
F0.020194986072423399
tp2604
a(I22901
F0.020097020097020097
tp2605
a(I88351
F0.019736842105263157
tp2606
a(I225661
F0.019006744328632742
tp2607
a(I250142
F0.018832391713747645
tp2608
a(I14475
F0.018124999999999999
tp2609
a(I225373
F0.017136539524599224
tp2610
a(I69492
F0.016824395373291272
tp2611
a(I121387
F0.01662971175166297
tp2612
a(I223937
F0.016307206733298264
tp2613
a(I224866
F0.016307206733298264
tp2614
a(I225659
F0.016210739614994935
tp2615
a(I227156
F0.015957446808510637
tp2616
a(I225706
F0.014371812702828002
tp2617
a(I10926
F0.014340344168260038
tp2618
a(I225660
F0.012606750711671411
tp2619
a(I241069
F0.012570965125709651
tp2620
a(I255833
F0.012437810945273632
tp2621
a(I255988
F0.012279983626688497
tp2622
a(I182516
F0.012185215272136474
tp2623
a(I256190
F0.012106537530266344
tp2624
a(I256416
F0.012101653892698669
tp2625
a(I79249
F0.011645962732919254
tp2626
a(I162383
F0.011549925484351714
tp2627
a(I14179
F0.011394891944990177
tp2628
a(I246237
F0.01048951048951049
tp2629
a(I239065
F0.0095328884652049577
tp2630
a(I1211
F0.0094996833438885375
tp2631
a(I225665
F0.0088836245188036716
tp2632
a(I204169
F0.0079263615443620553
tp2633
a(I204690
F0.0079263615443620553
tp2634
a(I252279
F0.0079243353783231083
tp2635
a(I95316
F0.0078600405679513183
tp2636
a(I136920
F0.007656967840735069
tp2637
a(I203634
F0.0076433121019108281
tp2638
a(I95335
F0.0075910931174089065
tp2639
a(I219539
F0.0075891727801669622
tp2640
a(I137428
F0.0075623897151499871
tp2641
a(I137477
F0.0075623897151499871
tp2642
a(I137398
F0.0074962518740629685
tp2643
a(I137447
F0.0074962518740629685
tp2644
a(I38522
F0.0069060773480662981
tp2645
a(I223671
F0.0068720904455774777
tp2646
a(I223685
F0.0068720904455774777
tp2647
a(I223692
F0.0068720904455774777
tp2648
a(I223700
F0.0068720904455774777
tp2649
a(I223707
F0.0068720904455774777
tp2650
a(I223678
F0.0068705673758865252
tp2651
a(I252278
F0.0053586862575626618
tp2652
atp2653
a(I98136
(lp2654
(I98136
F1
tp2655
a(I22367
F0.90000000000000002
tp2656
a(I127973
F0.90000000000000002
tp2657
a(I22242
F0.55932203389830504
tp2658
a(I21992
F0.48780487804878048
tp2659
a(I24012
F0.48780487804878048
tp2660
a(I21755
F0.15489130434782608
tp2661
a(I90349
F0.066147859922178989
tp2662
a(I22188
F0.05909617612977984
tp2663
a(I23958
F0.058152793614595209
tp2664
a(I21938
F0.058020477815699661
tp2665
a(I22805
F0.051059730250481696
tp2666
a(I90357
F0.050980392156862744
tp2667
a(I6166
F0.043715846994535519
tp2668
a(I48131
F0.042480883602378929
tp2669
a(I163665
F0.042071197411003236
tp2670
a(I6135
F0.040656205420827388
tp2671
a(I6172
F0.040656205420827388
tp2672
a(I11908
F0.038491147036181679
tp2673
a(I59586
F0.035997120230381568
tp2674
a(I248158
F0.035589672016748078
tp2675
a(I165372
F0.032722513089005235
tp2676
a(I165438
F0.032237266279819474
tp2677
a(I14475
F0.031481481481481478
tp2678
a(I162848
F0.029922202274087373
tp2679
a(I122132
F0.029629629629629631
tp2680
a(I69492
F0.029166666666666667
tp2681
a(I137249
F0.028764805414551606
tp2682
a(I162385
F0.027258150721539285
tp2683
a(I79246
F0.027204030226700253
tp2684
a(I34825
F0.027185501066098083
tp2685
a(I227156
F0.026827985270910047
tp2686
a(I83570
F0.026342451874366769
tp2687
a(I79593
F0.025832091405861898
tp2688
a(I47934
F0.02556237218813906
tp2689
a(I138231
F0.02556237218813906
tp2690
a(I225659
F0.025538307461191789
tp2691
a(I79764
F0.025365853658536587
tp2692
a(I19395
F0.025316455696202531
tp2693
a(I10926
F0.025106584557081951
tp2694
a(I205612
F0.023720930232558141
tp2695
a(I32642
F0.023578363384188627
tp2696
a(I117083
F0.023578363384188627
tp2697
a(I47956
F0.023463162834350071
tp2698
a(I142452
F0.023452157598499061
tp2699
a(I225706
F0.023405231757687012
tp2700
a(I47901
F0.023386342376052385
tp2701
a(I47981
F0.023386342376052385
tp2702
a(I79172
F0.023373052245646196
tp2703
a(I79954
F0.023373052245646196
tp2704
a(I156343
F0.023255813953488372
tp2705
a(I134465
F0.022461814914645103
tp2706
a(I255833
F0.022222222222222223
tp2707
a(I255988
F0.021942299878098336
tp2708
a(I182516
F0.021774193548387097
tp2709
a(I241069
F0.021730382293762576
tp2710
a(I256190
F0.021634615384615384
tp2711
a(I256416
F0.021625951141369643
tp2712
a(I79249
F0.021210952564596992
tp2713
a(I79250
F0.021032504780114723
tp2714
a(I162383
F0.020733061828952241
tp2715
a(I225660
F0.020556227327690448
tp2716
a(I205592
F0.020360219263899765
tp2717
a(I79260
F0.019260400616332819
tp2718
a(I183664
F0.019250601581299414
tp2719
a(I145051
F0.018934081346423562
tp2720
a(I1211
F0.018606117943866289
tp2721
a(I206057
F0.017814319972593355
tp2722
a(I2120
F0.01780212256076686
tp2723
a(I239065
F0.01738305941845765
tp2724
a(I225665
F0.016804245283018868
tp2725
a(I95316
F0.015163002274450341
tp2726
a(I177310
F0.015097690941385435
tp2727
a(I204169
F0.015031847133757962
tp2728
a(I204690
F0.015031847133757962
tp2729
a(I95335
F0.014880201765447668
tp2730
a(I137428
F0.014824120603015075
tp2731
a(I137477
F0.014824120603015075
tp2732
a(I203634
F0.014724549378014725
tp2733
a(I137398
F0.014694894146948941
tp2734
a(I137447
F0.014694894146948941
tp2735
a(I219539
F0.014364919354838709
tp2736
a(I252279
F0.014252990582845508
tp2737
a(I136920
F0.013462026924053848
tp2738
a(I158572
F0.012802607076350093
tp2739
a(I38522
F0.012611786287548728
tp2740
a(I223671
F0.012143961139324354
tp2741
a(I223685
F0.012143961139324354
tp2742
a(I223692
F0.012143961139324354
tp2743
a(I223700
F0.012143961139324354
tp2744
a(I223707
F0.012143961139324354
tp2745
a(I223678
F0.012141280353200883
tp2746
a(I30880
F0.011592958351223702
tp2747
a(I196601
F0.011421578625331429
tp2748
a(I196576
F0.011402972917939319
tp2749
a(I196584
F0.011402972917939319
tp2750
a(I196592
F0.011402972917939319
tp2751
a(I196615
F0.011402972917939319
tp2752
a(I97597
F0.01034906156814594
tp2753
a(I252278
F0.01
tp2754
atp2755
a(I98137
(lp2756
(I98137
F1
tp2757
a(I98174
F1
tp2758
a(I22819
F0.33333333333333331
tp2759
a(I95377
F0.21052631578947367
tp2760
a(I95387
F0.21052631578947367
tp2761
a(I95395
F0.21052631578947367
tp2762
a(I95405
F0.21052631578947367
tp2763
a(I98138
F0.21052631578947367
tp2764
a(I98175
F0.21052631578947367
tp2765
a(I106361
F0.21052631578947367
tp2766
a(I21993
F0.20000000000000001
tp2767
a(I22243
F0.20000000000000001
tp2768
a(I22368
F0.20000000000000001
tp2769
a(I22852
F0.20000000000000001
tp2770
a(I24013
F0.20000000000000001
tp2771
a(I127974
F0.20000000000000001
tp2772
a(I98112
F0.088888888888888892
tp2773
a(I98150
F0.088888888888888892
tp2774
a(I22367
F0.050632911392405063
tp2775
a(I127973
F0.050632911392405063
tp2776
a(I22246
F0.044444444444444446
tp2777
a(I22371
F0.044444444444444446
tp2778
a(I24016
F0.044444444444444446
tp2779
a(I95380
F0.044444444444444446
tp2780
a(I95390
F0.044444444444444446
tp2781
a(I95398
F0.044444444444444446
tp2782
a(I95408
F0.044444444444444446
tp2783
a(I98141
F0.044444444444444446
tp2784
a(I98178
F0.044444444444444446
tp2785
a(I106364
F0.044444444444444446
tp2786
a(I127977
F0.044444444444444446
tp2787
a(I21996
F0.043956043956043959
tp2788
a(I21992
F0.036363636363636362
tp2789
a(I24012
F0.036363636363636362
tp2790
a(I22242
F0.036036036036036036
tp2791
a(I21997
F0.030769230769230771
tp2792
a(I22247
F0.030769230769230771
tp2793
a(I22372
F0.030769230769230771
tp2794
a(I24017
F0.030769230769230771
tp2795
a(I127978
F0.030769230769230771
tp2796
a(I22332
F0.027397260273972601
tp2797
a(I127939
F0.027397260273972601
tp2798
a(I21844
F0.027210884353741496
tp2799
a(I22098
F0.027210884353741496
tp2800
a(I23864
F0.027210884353741496
tp2801
a(I151548
F0.022598870056497175
tp2802
a(I22798
F0.020202020202020204
tp2803
a(I6123
F0.019801980198019802
tp2804
a(I12577
F0.014388489208633094
tp2805
a(I12417
F0.013793103448275862
tp2806
a(I12660
F0.013793103448275862
tp2807
a(I154733
F0.010869565217391304
tp2808
a(I178597
F0.0076628352490421452
tp2809
a(I179327
F0.0076628352490421452
tp2810
a(I180056
F0.0076628352490421452
tp2811
a(I180785
F0.0076628352490421452
tp2812
a(I54216
F0.0074487895716945996
tp2813
a(I54633
F0.0074211502782931356
tp2814
a(I54686
F0.0074211502782931356
tp2815
a(I183677
F0.0071174377224199285
tp2816
a(I154777
F0.0069686411149825784
tp2817
a(I58352
F0.0063492063492063492
tp2818
a(I58369
F0.0063492063492063492
tp2819
a(I58386
F0.0063492063492063492
tp2820
a(I133768
F0.0060150375939849628
tp2821
a(I117425
F0.0059435364041604752
tp2822
a(I127084
F0.0056258790436005627
tp2823
a(I166458
F0.0056100981767180924
tp2824
a(I178848
F0.005270092226613966
tp2825
a(I179578
F0.005270092226613966
tp2826
a(I180307
F0.005270092226613966
tp2827
a(I181036
F0.005270092226613966
tp2828
a(I15181
F0.0050697084917617234
tp2829
a(I16543
F0.0050697084917617234
tp2830
a(I148007
F0.0050632911392405064
tp2831
a(I54116
F0.0050441361916771753
tp2832
a(I54739
F0.0050441361916771753
tp2833
a(I31358
F0.0050314465408805029
tp2834
a(I189221
F0.0047619047619047623
tp2835
a(I189155
F0.0047225501770956314
tp2836
a(I189284
F0.0047225501770956314
tp2837
a(I53975
F0.0046296296296296294
tp2838
a(I54492
F0.0046296296296296294
tp2839
a(I162080
F0.0041884816753926706
tp2840
a(I162277
F0.0032310177705977385
tp2841
a(I144104
F0.0029873039581777448
tp2842
a(I178756
F0.0025510204081632651
tp2843
a(I179486
F0.0025510204081632651
tp2844
a(I180215
F0.0025510204081632651
tp2845
a(I180944
F0.0025510204081632651
tp2846
a(I69492
F0.0021019442984760903
tp2847
a(I79260
F0.0015546055188495919
tp2848
a(I95316
F0.0010141987829614604
tp2849
a(I95335
F0.0010124019235636548
tp2850
a(I137428
F0.0010085728693898135
tp2851
a(I137477
F0.0010085728693898135
tp2852
a(I137398
F0.00099975006248437899
tp2853
a(I137447
F0.00099975006248437899
tp2854
a(I38522
F0.00092102233479161865
tp2855
a(I97597
F0.00070335853701424303
tp2856
atp2857
a(I98138
(lp2858
(I98138
F1
tp2859
a(I98175
F1
tp2860
a(I95377
F0.80000000000000004
tp2861
a(I95387
F0.80000000000000004
tp2862
a(I95395
F0.80000000000000004
tp2863
a(I95405
F0.80000000000000004
tp2864
a(I106361
F0.80000000000000004
tp2865
a(I21993
F0.76190476190476186
tp2866
a(I22243
F0.76190476190476186
tp2867
a(I22368
F0.76190476190476186
tp2868
a(I24013
F0.76190476190476186
tp2869
a(I127974
F0.76190476190476186
tp2870
a(I22852
F0.68181818181818177
tp2871
a(I1997
F0.61904761904761907
tp2872
a(I5526
F0.61904761904761907
tp2873
a(I4603
F0.59090909090909094
tp2874
a(I4620
F0.59090909090909094
tp2875
a(I4638
F0.59090909090909094
tp2876
a(I4656
F0.59090909090909094
tp2877
a(I4673
F0.59090909090909094
tp2878
a(I9244
F0.59090909090909094
tp2879
a(I12232
F0.59090909090909094
tp2880
a(I9456
F0.5
tp2881
a(I98142
F0.10606060606060606
tp2882
a(I98179
F0.10606060606060606
tp2883
a(I106365
F0.10606060606060606
tp2884
a(I21997
F0.10526315789473684
tp2885
a(I22247
F0.10526315789473684
tp2886
a(I22372
F0.10526315789473684
tp2887
a(I24017
F0.10526315789473684
tp2888
a(I95381
F0.10526315789473684
tp2889
a(I95391
F0.10526315789473684
tp2890
a(I95399
F0.10526315789473684
tp2891
a(I95409
F0.10526315789473684
tp2892
a(I127978
F0.10526315789473684
tp2893
a(I18355
F0.10218978102189781
tp2894
a(I18380
F0.079365079365079361
tp2895
a(I18319
F0.074999999999999997
tp2896
a(I18412
F0.074999999999999997
tp2897
a(I219709
F0.074866310160427801
tp2898
a(I219737
F0.071065989847715741
tp2899
a(I6123
F0.068292682926829273
tp2900
a(I69521
F0.016393442622950821
tp2901
a(I243673
F0.015538290788013319
tp2902
a(I40592
F0.014071294559099437
tp2903
a(I90357
F0.013972055888223553
tp2904
a(I19388
F0.013799448022079117
tp2905
a(I22805
F0.013712047012732615
tp2906
a(I40594
F0.01236603462489695
tp2907
a(I97409
F0.011829652996845425
tp2908
a(I40590
F0.01179245283018868
tp2909
a(I40596
F0.011755485893416929
tp2910
a(I104061
F0.011538461538461539
tp2911
a(I243302
F0.01098901098901099
tp2912
a(I244267
F0.01098901098901099
tp2913
a(I243531
F0.010972933430870519
tp2914
a(I179825
F0.010963194988253719
tp2915
a(I179095
F0.010911925175370226
tp2916
a(I180554
F0.010911925175370226
tp2917
a(I181283
F0.010911925175370226
tp2918
a(I96279
F0.01088646967340591
tp2919
a(I127534
F0.010852713178294573
tp2920
a(I15784
F0.010622154779969651
tp2921
a(I17146
F0.010622154779969651
tp2922
a(I144104
F0.010432190760059613
tp2923
a(I200804
F0.0097493036211699167
tp2924
a(I2844
F0.0091420534458509142
tp2925
a(I160085
F0.0083732057416267946
tp2926
a(I122132
F0.0080598733448474374
tp2927
a(I27343
F0.0067340067340067337
tp2928
a(I155787
F0.0064904960593416784
tp2929
a(I14179
F0.0054988216810683424
tp2930
a(I145051
F0.0052910052910052907
tp2931
a(I27340
F0.0051357300073367569
tp2932
a(I206057
F0.0048259220958290243
tp2933
a(I2120
F0.0048225973131243542
tp2934
a(I239065
F0.0047649301143583228
tp2935
a(I225665
F0.0044404973357015983
tp2936
a(I95316
F0.0040557667934093787
tp2937
a(I204169
F0.0038333759263991822
tp2938
a(I204690
F0.0038333759263991822
tp2939
a(I95335
F0.0037945863900834811
tp2940
a(I137428
F0.0037802419354838711
tp2941
a(I137477
F0.0037802419354838711
tp2942
a(I137398
F0.0037471896077941546
tp2943
a(I137447
F0.0037471896077941546
tp2944
a(I38522
F0.0036832412523020259
tp2945
a(I252279
F0.0035759897828863347
tp2946
a(I136920
F0.0035714285714285713
tp2947
a(I203634
F0.0035650623885918001
tp2948
a(I223671
F0.0035460992907801418
tp2949
a(I223685
F0.0035460992907801418
tp2950
a(I223692
F0.0035460992907801418
tp2951
a(I223700
F0.0035460992907801418
tp2952
a(I223707
F0.0035460992907801418
tp2953
a(I223678
F0.0035453135386660757
tp2954
a(I219539
F0.0035398230088495575
tp2955
a(I158572
F0.003270263957019388
tp2956
a(I252278
F0.0029386343993085566
tp2957
a(I97597
F0.0026366672525927229
tp2958
atp2959
a(I98139
(lp2960
(I98139
F1
tp2961
a(I98176
F1
tp2962
a(I21994
F0.94999999999999996
tp2963
a(I22244
F0.94999999999999996
tp2964
a(I22369
F0.94999999999999996
tp2965
a(I24014
F0.94999999999999996
tp2966
a(I127975
F0.94999999999999996
tp2967
a(I95378
F0.41911764705882354
tp2968
a(I95388
F0.41911764705882354
tp2969
a(I95396
F0.41911764705882354
tp2970
a(I95406
F0.41911764705882354
tp2971
a(I106362
F0.41911764705882354
tp2972
a(I22853
F0.41605839416058393
tp2973
a(I22821
F0.21428571428571427
tp2974
a(I66060
F0.21428571428571427
tp2975
a(I18320
F0.2087912087912088
tp2976
a(I18356
F0.2087912087912088
tp2977
a(I18381
F0.2087912087912088
tp2978
a(I18413
F0.2087912087912088
tp2979
a(I12392
F0.041988950276243095
tp2980
a(I12635
F0.041988950276243095
tp2981
a(I22894
F0.04194260485651214
tp2982
a(I136734
F0.039235412474849095
tp2983
a(I40592
F0.037002775208140611
tp2984
a(I40594
F0.033414832925835372
tp2985
a(I163665
F0.033306255077173032
tp2986
a(I127534
F0.032258064516129031
tp2987
a(I97409
F0.031981279251170044
tp2988
a(I40590
F0.031881804043545882
tp2989
a(I40596
F0.031782945736434108
tp2990
a(I15784
F0.031578947368421054
tp2991
a(I17146
F0.031578947368421054
tp2992
a(I179825
F0.030983733539891558
tp2993
a(I179095
F0.030840400925212029
tp2994
a(I180554
F0.030840400925212029
tp2995
a(I181283
F0.030840400925212029
tp2996
a(I78138
F0.030651340996168581
tp2997
a(I78525
F0.030651340996168581
tp2998
a(I243302
F0.028985507246376812
tp2999
a(I244267
F0.028985507246376812
tp3000
a(I243531
F0.028943560057887119
tp3001
a(I248158
F0.028731604765241767
tp3002
a(I200804
F0.026878015161957272
tp3003
a(I162848
F0.0234093637454982
tp3004
a(I69492
F0.022964509394572025
tp3005
a(I162385
F0.021436227224008574
tp3006
a(I223937
F0.020855057351407715
tp3007
a(I224866
F0.020855057351407715
tp3008
a(I227156
F0.020558777016341592
tp3009
a(I79246
F0.020171457387796268
tp3010
a(I225659
F0.019568489713998997
tp3011
a(I115365
F0.018978102189781021
tp3012
a(I79593
F0.018896071606166086
tp3013
a(I225706
F0.018867924528301886
tp3014
a(I9372
F0.018327067669172931
tp3015
a(I225660
F0.017799352750809062
tp3016
a(I79172
F0.017439192290041303
tp3017
a(I182516
F0.017373737373737375
tp3018
a(I255833
F0.017312448474855729
tp3019
a(I256190
F0.017262143717382578
tp3020
a(I256416
F0.017255216693418941
tp3021
a(I255988
F0.017094017094017096
tp3022
a(I79249
F0.017001545595054096
tp3023
a(I162383
F0.01669139465875371
tp3024
a(I135441
F0.015706806282722512
tp3025
a(I27340
F0.014968966776195691
tp3026
a(I79260
F0.014660493827160493
tp3027
a(I183664
F0.014447884416924664
tp3028
a(I225665
F0.013282172373081463
tp3029
a(I1211
F0.012602394454946439
tp3030
a(I239065
F0.012326169405815424
tp3031
a(I177310
F0.011558980438648489
tp3032
a(I136920
F0.011195928753180661
tp3033
a(I204169
F0.010955414012738853
tp3034
a(I204690
F0.010955414012738853
tp3035
a(I95316
F0.010864072764022233
tp3036
a(I252279
F0.0106951871657754
tp3037
a(I203634
F0.010662604722010662
tp3038
a(I95335
F0.01059001512859304
tp3039
a(I137428
F0.010550113036925395
tp3040
a(I137477
F0.010550113036925395
tp3041
a(I137398
F0.01045816733067729
tp3042
a(I137447
F0.01045816733067729
tp3043
a(I219539
F0.01033266129032258
tp3044
a(I30880
F0.0098924731182795708
tp3045
a(I158572
F0.0097833682739343116
tp3046
a(I38522
F0.0096374483708122991
tp3047
a(I223671
F0.0092797171895713654
tp3048
a(I223685
F0.0092797171895713654
tp3049
a(I223692
F0.0092797171895713654
tp3050
a(I223700
F0.0092797171895713654
tp3051
a(I223707
F0.0092797171895713654
tp3052
a(I223678
F0.0092776673293571907
tp3053
a(I196601
F0.0091874234381380156
tp3054
a(I196576
F0.0091724419078679162
tp3055
a(I196584
F0.0091724419078679162
tp3056
a(I196592
F0.0091724419078679162
tp3057
a(I196615
F0.0091724419078679162
tp3058
a(I252278
F0.0086325966850828734
tp3059
a(I97597
F0.0082499561172546948
tp3060
atp3061
a(I98140
(lp3062
(I98140
F1
tp3063
a(I98177
F1
tp3064
a(I21995
F0.95833333333333337
tp3065
a(I22245
F0.95833333333333337
tp3066
a(I22370
F0.95833333333333337
tp3067
a(I22854
F0.95833333333333337
tp3068
a(I24015
F0.95833333333333337
tp3069
a(I95379
F0.95833333333333337
tp3070
a(I95389
F0.95833333333333337
tp3071
a(I95397
F0.95833333333333337
tp3072
a(I95407
F0.95833333333333337
tp3073
a(I106363
F0.95833333333333337
tp3074
a(I127976
F0.95833333333333337
tp3075
a(I90349
F0.051587301587301584
tp3076
a(I90357
F0.040836653386454182
tp3077
a(I22805
F0.040078201368523948
tp3078
a(I57194
F0.038095238095238099
tp3079
a(I60762
F0.038095238095238099
tp3080
a(I19388
F0.035714285714285712
tp3081
a(I163665
F0.03276003276003276
tp3082
a(I162872
F0.032520325203252036
tp3083
a(I40594
F0.032019704433497539
tp3084
a(I218378
F0.031974420463629097
tp3085
a(I217899
F0.031948881789137379
tp3086
a(I218845
F0.031948881789137379
tp3087
a(I219219
F0.031948881789137379
tp3088
a(I40590
F0.030540328895849646
tp3089
a(I40596
F0.030444964871194378
tp3090
a(I15784
F0.029500756429652043
tp3091
a(I17146
F0.029500756429652043
tp3092
a(I155
F0.029478458049886622
tp3093
a(I59586
F0.029154518950437316
tp3094
a(I172915
F0.028429282160625444
tp3095
a(I109307
F0.028062970568104039
tp3096
a(I234258
F0.027643400138217002
tp3097
a(I168431
F0.027567195037904894
tp3098
a(I41153
F0.027529249827942189
tp3099
a(I109312
F0.027529249827942189
tp3100
a(I12478
F0.027234636871508379
tp3101
a(I22146
F0.027158774373259052
tp3102
a(I77988
F0.027158774373259052
tp3103
a(I21896
F0.027121001390820583
tp3104
a(I23916
F0.027121001390820583
tp3105
a(I225661
F0.025061124694376529
tp3106
a(I241066
F0.02463343108504399
tp3107
a(I225664
F0.024067388688327317
tp3108
a(I34829
F0.023296447291788001
tp3109
a(I79247
F0.022981732469063054
tp3110
a(I26147
F0.022272986864648771
tp3111
a(I109302
F0.022111663902708679
tp3112
a(I69492
F0.022024121657052961
tp3113
a(I223937
F0.02097535395909806
tp3114
a(I224866
F0.02097535395909806
tp3115
a(I173652
F0.020971867007672635
tp3116
a(I34825
F0.020956475013433638
tp3117
a(I83570
F0.02041858090862685
tp3118
a(I225706
F0.019907407407407408
tp3119
a(I10926
F0.019074868860276584
tp3120
a(I155787
F0.018990273274664196
tp3121
a(I156343
F0.01875293014533521
tp3122
a(I198063
F0.01875293014533521
tp3123
a(I32642
F0.018630647414997672
tp3124
a(I117083
F0.018630647414997672
tp3125
a(I47956
F0.018439716312056736
tp3126
a(I47901
F0.018378887841658812
tp3127
a(I47981
F0.018378887841658812
tp3128
a(I129028
F0.018365472910927456
tp3129
a(I225660
F0.01705237515225335
tp3130
a(I34827
F0.016912402428447527
tp3131
a(I155502
F0.016638935108153077
tp3132
a(I241069
F0.016592472683124242
tp3133
a(I135441
F0.016187778227438283
tp3134
a(I205592
F0.01615445232466509
tp3135
a(I79249
F0.015891472868217054
tp3136
a(I79250
F0.015757109915449655
tp3137
a(I246237
F0.014669926650366748
tp3138
a(I27340
F0.014657383657017223
tp3139
a(I206057
F0.013774104683195593
tp3140
a(I2120
F0.013764624913971095
tp3141
a(I2114
F0.013746915756080367
tp3142
a(I225665
F0.013025458851391355
tp3143
a(I1211
F0.012966476913345983
tp3144
a(I204169
F0.010986203372508942
tp3145
a(I204690
F0.010986203372508942
tp3146
a(I95316
F0.010894350139346339
tp3147
a(I203634
F0.010692464358452138
tp3148
a(I95335
F0.010619469026548672
tp3149
a(I219539
F0.010616784630940344
tp3150
a(I137428
F0.01057934508816121
tp3151
a(I137477
F0.01057934508816121
tp3152
a(I252279
F0.010467194281337758
tp3153
a(I158572
F0.0093370681605975722
tp3154
a(I30880
F0.0088285960378983643
tp3155
a(I196601
F0.0083827438151707224
tp3156
a(I196576
F0.0083690549091651363
tp3157
a(I196584
F0.0083690549091651363
tp3158
a(I196592
F0.0083690549091651363
tp3159
a(I196615
F0.0083690549091651363
tp3160
a(I252278
F0.0074291637871458189
tp3161
a(I97597
F0.0072030920590302177
tp3162
atp3163
a(I98141
(lp3164
(I98141
F1
tp3165
a(I98178
F1
tp3166
a(I95380
F0.97777777777777775
tp3167
a(I95390
F0.97777777777777775
tp3168
a(I95398
F0.97777777777777775
tp3169
a(I95408
F0.97777777777777775
tp3170
a(I106364
F0.97777777777777775
tp3171
a(I22246
F0.95604395604395609
tp3172
a(I22371
F0.95604395604395609
tp3173
a(I24016
F0.95604395604395609
tp3174
a(I127977
F0.95604395604395609
tp3175
a(I21996
F0.94565217391304346
tp3176
a(I22855
F0.93333333333333335
tp3177
a(I22188
F0.076477404403244492
tp3178
a(I23958
F0.075256556442417327
tp3179
a(I21938
F0.075085324232081918
tp3180
a(I163665
F0.059349593495934959
tp3181
a(I40594
F0.05438311688311688
tp3182
a(I59293
F0.051777434312210199
tp3183
a(I131363
F0.051777434312210199
tp3184
a(I2190
F0.051123160340821067
tp3185
a(I40590
F0.05108359133126935
tp3186
a(I40596
F0.050925925925925923
tp3187
a(I243302
F0.049168474331164135
tp3188
a(I244267
F0.049168474331164135
tp3189
a(I243531
F0.049097472924187723
tp3190
a(I172915
F0.047116736990154715
tp3191
a(I248158
F0.046787709497206703
tp3192
a(I22146
F0.045485871812543072
tp3193
a(I77988
F0.045485871812543072
tp3194
a(I21896
F0.045423262216104612
tp3195
a(I23916
F0.045423262216104612
tp3196
a(I34829
F0.041690793283149973
tp3197
a(I162848
F0.040143798681845415
tp3198
a(I225664
F0.039952295766249257
tp3199
a(I69492
F0.037519541427826993
tp3200
a(I225373
F0.036612021857923498
tp3201
a(I223937
F0.035937499999999997
tp3202
a(I224866
F0.035937499999999997
tp3203
a(I141075
F0.035543766578249335
tp3204
a(I141441
F0.035543766578249335
tp3205
a(I224371
F0.034841393655746226
tp3206
a(I225964
F0.034841393655746226
tp3207
a(I83570
F0.033941236068895646
tp3208
a(I79593
F0.033797216699801194
tp3209
a(I79764
F0.03369140625
tp3210
a(I225659
F0.033567134268537073
tp3211
a(I10926
F0.031723484848484848
tp3212
a(I225706
F0.03170955882352941
tp3213
a(I32642
F0.03146691346598797
tp3214
a(I117083
F0.03146691346598797
tp3215
a(I79172
F0.031192660550458717
tp3216
a(I79954
F0.031192660550458717
tp3217
a(I156343
F0.031191806331471134
tp3218
a(I198063
F0.031191806331471134
tp3219
a(I129028
F0.030551755585955312
tp3220
a(I177314
F0.029143105698129623
tp3221
a(I34827
F0.028879310344827585
tp3222
a(I225660
F0.02784503631961259
tp3223
a(I135441
F0.026950925181013677
tp3224
a(I145051
F0.02671353251318102
tp3225
a(I79249
F0.026599845797995375
tp3226
a(I79250
F0.026376146788990827
tp3227
a(I79260
F0.026224450443501735
tp3228
a(I27340
F0.025164113785557989
tp3229
a(I206057
F0.024356775300171527
tp3230
a(I2120
F0.024340075419952006
tp3231
a(I206051
F0.023533544081489288
tp3232
a(I2114
F0.023500526131182042
tp3233
a(I225665
F0.022432113341204249
tp3234
a(I1211
F0.02236925015752993
tp3235
a(I239065
F0.022123893805309734
tp3236
a(I252279
F0.01807075591753627
tp3237
a(I95316
F0.017667844522968199
tp3238
a(I204169
F0.017557251908396947
tp3239
a(I204690
F0.017557251908396947
tp3240
a(I95335
F0.017380352644836273
tp3241
a(I137428
F0.017314930991217063
tp3242
a(I137477
F0.017314930991217063
tp3243
a(I136920
F0.017272034544069087
tp3244
a(I203634
F0.017241379310344827
tp3245
a(I219539
F0.017119838872104734
tp3246
a(I38522
F0.016984163415193942
tp3247
a(I137398
F0.01691121611539418
tp3248
a(I137447
F0.01691121611539418
tp3249
a(I223671
F0.016578249336870028
tp3250
a(I223685
F0.016578249336870028
tp3251
a(I223692
F0.016578249336870028
tp3252
a(I223700
F0.016578249336870028
tp3253
a(I223707
F0.016578249336870028
tp3254
a(I223678
F0.016574585635359115
tp3255
a(I30880
F0.016340571920017199
tp3256
a(I158572
F0.016294227188081937
tp3257
a(I196601
F0.015516537362188649
tp3258
a(I196576
F0.015491235222176927
tp3259
a(I196584
F0.015491235222176927
tp3260
a(I196592
F0.015491235222176927
tp3261
a(I196615
F0.015491235222176927
tp3262
a(I252278
F0.013110229429015009
tp3263
a(I97597
F0.012447405329593268
tp3264
atp3265
a(I98142
(lp3266
(I98142
F1
tp3267
a(I98179
F1
tp3268
a(I106365
F0.98449612403100772
tp3269
a(I95381
F0.97692307692307689
tp3270
a(I95399
F0.97692307692307689
tp3271
a(I95409
F0.97692307692307689
tp3272
a(I21997
F0.96183206106870234
tp3273
a(I22247
F0.96183206106870234
tp3274
a(I22372
F0.96183206106870234
tp3275
a(I24017
F0.96183206106870234
tp3276
a(I95391
F0.96183206106870234
tp3277
a(I127978
F0.96183206106870234
tp3278
a(I22856
F0.94736842105263153
tp3279
a(I40592
F0.083712465878070977
tp3280
a(I163665
F0.075320512820512817
tp3281
a(I40594
F0.074698795180722893
tp3282
a(I217899
F0.073494917904612975
tp3283
a(I218845
F0.073494917904612975
tp3284
a(I219219
F0.073494917904612975
tp3285
a(I218378
F0.072713057075840498
tp3286
a(I6166
F0.072474942174248269
tp3287
a(I97409
F0.072363356428021552
tp3288
a(I134772
F0.072196620583717355
tp3289
a(I40590
F0.072141212586339223
tp3290
a(I40596
F0.071920428462127012
tp3291
a(I69202
F0.069381598793363503
tp3292
a(I11908
F0.069359756097560982
tp3293
a(I11909
F0.069224981188863804
tp3294
a(I210332
F0.069090909090909092
tp3295
a(I99687
F0.068707991038088126
tp3296
a(I6135
F0.068502824858757055
tp3297
a(I6172
F0.068502824858757055
tp3298
a(I51352
F0.061357702349869453
tp3299
a(I29362
F0.060666666666666667
tp3300
a(I88351
F0.05988409529942048
tp3301
a(I117839
F0.057160417947141981
tp3302
a(I237031
F0.056063375990249846
tp3303
a(I225661
F0.055222088835534214
tp3304
a(I241066
F0.052995391705069124
tp3305
a(I26147
F0.051714446318156269
tp3306
a(I137249
F0.051511758118701005
tp3307
a(I121387
F0.051198257080610023
tp3308
a(I227156
F0.050811943425877422
tp3309
a(I69492
F0.050181065700982928
tp3310
a(I209494
F0.049520766773162937
tp3311
a(I79246
F0.048072108162243367
tp3312
a(I83570
F0.046804227478610974
tp3313
a(I173652
F0.046347607052896728
tp3314
a(I47934
F0.046216353478923312
tp3315
a(I191061
F0.046039603960396039
tp3316
a(I10926
F0.045240339302544771
tp3317
a(I129028
F0.043103448275862072
tp3318
a(I173342
F0.042318307267709292
tp3319
a(I32642
F0.042279411764705885
tp3320
a(I117083
F0.042279411764705885
tp3321
a(I225706
F0.041970802919708027
tp3322
a(I34827
F0.039417309340188521
tp3323
a(I135441
F0.038461538461538464
tp3324
a(I79249
F0.03843197540353574
tp3325
a(I155502
F0.037813399095766545
tp3326
a(I79250
F0.037319116527037316
tp3327
a(I256190
F0.037037037037037035
tp3328
a(I256416
F0.037022292993630572
tp3329
a(I182516
F0.03685897435897436
tp3330
a(I241069
F0.036785285885645745
tp3331
a(I205592
F0.036229061160888199
tp3332
a(I162383
F0.03612237375598968
tp3333
a(I27340
F0.033732317736670292
tp3334
a(I246237
F0.032860601867865789
tp3335
a(I1211
F0.03270440251572327
tp3336
a(I239065
F0.030541561712846346
tp3337
a(I225665
F0.02817728206633402
tp3338
a(I252279
F0.025387154100025386
tp3339
a(I136920
F0.025095057034220533
tp3340
a(I95316
F0.024666498867354645
tp3341
a(I204169
F0.024613042375031719
tp3342
a(I204690
F0.024613042375031719
tp3343
a(I95335
F0.024365737251946747
tp3344
a(I137428
F0.024274274274274275
tp3345
a(I137477
F0.024274274274274275
tp3346
a(I203634
F0.024273072060682681
tp3347
a(I158572
F0.023942352394235238
tp3348
a(I219539
F0.023845381526104419
tp3349
a(I137398
F0.023555665757500621
tp3350
a(I137447
F0.023555665757500621
tp3351
a(I38522
F0.021480804387568556
tp3352
a(I30880
F0.021431633090441493
tp3353
a(I223671
F0.020686619718309859
tp3354
a(I223685
F0.020686619718309859
tp3355
a(I223692
F0.020686619718309859
tp3356
a(I223700
F0.020686619718309859
tp3357
a(I223707
F0.020686619718309859
tp3358
a(I223678
F0.020682068206820683
tp3359
a(I196601
F0.020354162426216162
tp3360
a(I196576
F0.020321072952651901
tp3361
a(I196584
F0.020321072952651901
tp3362
a(I196592
F0.020321072952651901
tp3363
a(I196615
F0.020321072952651901
tp3364
a(I97597
F0.01839201261166579
tp3365
a(I252278
F0.018081625624246599
tp3366
atp3367
a(I98143
(lp3368
(I98143
F1
tp3369
a(I98180
F1
tp3370
a(I21998
F0.98571428571428577
tp3371
a(I22248
F0.98571428571428577
tp3372
a(I22373
F0.98571428571428577
tp3373
a(I22857
F0.98571428571428577
tp3374
a(I24018
F0.98571428571428577
tp3375
a(I95382
F0.98571428571428577
tp3376
a(I95392
F0.98571428571428577
tp3377
a(I95400
F0.98571428571428577
tp3378
a(I95410
F0.98571428571428577
tp3379
a(I106366
F0.98571428571428577
tp3380
a(I127979
F0.98571428571428577
tp3381
a(I90349
F0.14451612903225808
tp3382
a(I21938
F0.12175873731679819
tp3383
a(I90357
F0.11252446183953033
tp3384
a(I22805
F0.11047070124879924
tp3385
a(I163665
F0.095546558704453444
tp3386
a(I97409
F0.084169884169884177
tp3387
a(I40590
F0.08391070053887606
tp3388
a(I40596
F0.083653108211818886
tp3389
a(I155
F0.081040892193308553
tp3390
a(I214873
F0.080920564216778026
tp3391
a(I248158
F0.076441973592772758
tp3392
a(I225664
F0.065953654188948302
tp3393
a(I69492
F0.061914672216441209
tp3394
a(I225373
F0.060457516339869281
tp3395
a(I223937
F0.059771309771309775
tp3396
a(I224866
F0.059771309771309775
tp3397
a(I141075
F0.058139534883720929
tp3398
a(I141441
F0.058139534883720929
tp3399
a(I225659
F0.057557557557557558
tp3400
a(I224371
F0.056994818652849742
tp3401
a(I225964
F0.056994818652849742
tp3402
a(I183678
F0.056690500510725231
tp3403
a(I225706
F0.053719008264462811
tp3404
a(I156343
F0.053488372093023255
tp3405
a(I198063
F0.053488372093023255
tp3406
a(I32642
F0.053142329020332717
tp3407
a(I117083
F0.053142329020332717
tp3408
a(I27343
F0.052781740370898715
tp3409
a(I205464
F0.051643192488262914
tp3410
a(I205513
F0.051643192488262914
tp3411
a(I205558
F0.051643192488262914
tp3412
a(I205657
F0.051643192488262914
tp3413
a(I205612
F0.051508120649651976
tp3414
a(I142452
F0.051474029012634537
tp3415
a(I47901
F0.051329911339244048
tp3416
a(I47981
F0.051329911339244048
tp3417
a(I34827
F0.04772141014617369
tp3418
a(I177314
F0.047247507585609014
tp3419
a(I255833
F0.046387520525451559
tp3420
a(I225660
F0.046333601933924252
tp3421
a(I255988
F0.046228710462287104
tp3422
a(I256190
F0.045999999999999999
tp3423
a(I256416
F0.045981607357057176
tp3424
a(I182516
F0.045875251509054325
tp3425
a(I79250
F0.045089797478028278
tp3426
a(I79249
F0.044666923373122835
tp3427
a(I205592
F0.044583496284708646
tp3428
a(I27340
F0.043779642466253189
tp3429
a(I79260
F0.041890853189853958
tp3430
a(I162383
F0.040944300995942456
tp3431
a(I183664
F0.040164778578784761
tp3432
a(I206057
F0.03937007874015748
tp3433
a(I2120
F0.039343140608963392
tp3434
a(I145051
F0.038811188811188814
tp3435
a(I246237
F0.038101835815725668
tp3436
a(I1211
F0.036163522012578615
tp3437
a(I225665
F0.035661656351311521
tp3438
a(I239065
F0.034656584751102712
tp3439
a(I177310
F0.033422064477965099
tp3440
a(I204169
F0.03106697224344283
tp3441
a(I204690
F0.03106697224344283
tp3442
a(I95316
F0.030808080808080809
tp3443
a(I203634
F0.030702867292565338
tp3444
a(I95335
F0.030493951612903226
tp3445
a(I219539
F0.030486268581506677
tp3446
a(I137428
F0.030379111222696459
tp3447
a(I137477
F0.030379111222696459
tp3448
a(I252279
F0.030272195370134827
tp3449
a(I137398
F0.029601990049751243
tp3450
a(I137447
F0.029601990049751243
tp3451
a(I136920
F0.0289266683582847
tp3452
a(I38522
F0.027281063732232921
tp3453
a(I158572
F0.026499302649930265
tp3454
a(I223671
F0.026269315673289183
tp3455
a(I223685
F0.026269315673289183
tp3456
a(I223692
F0.026269315673289183
tp3457
a(I223700
F0.026269315673289183
tp3458
a(I223707
F0.026269315673289183
tp3459
a(I223678
F0.026263517987199295
tp3460
a(I30880
F0.026208378088077335
tp3461
a(I196601
F0.024887800897592818
tp3462
a(I196576
F0.024847250509164968
tp3463
a(I196584
F0.024847250509164968
tp3464
a(I196592
F0.024847250509164968
tp3465
a(I196615
F0.024847250509164968
tp3466
a(I252278
F0.022088006902502157
tp3467
a(I97597
F0.021213183730715287
tp3468
atp3469
a(I98144
(lp3470
(I98144
F1
tp3471
a(I98181
F1
tp3472
a(I21999
F0.98870056497175141
tp3473
a(I22249
F0.98870056497175141
tp3474
a(I22374
F0.98870056497175141
tp3475
a(I22858
F0.98870056497175141
tp3476
a(I24019
F0.98870056497175141
tp3477
a(I95383
F0.98870056497175141
tp3478
a(I95393
F0.98870056497175141
tp3479
a(I95401
F0.98870056497175141
tp3480
a(I95411
F0.98870056497175141
tp3481
a(I106367
F0.98870056497175141
tp3482
a(I127980
F0.98870056497175141
tp3483
a(I163665
F0.091051805337519623
tp3484
a(I22146
F0.085250338294993233
tp3485
a(I77988
F0.085250338294993233
tp3486
a(I21896
F0.08513513513513514
tp3487
a(I23916
F0.08513513513513514
tp3488
a(I103618
F0.084688346883468837
tp3489
a(I12478
F0.084010840108401083
tp3490
a(I22901
F0.083836351441985243
tp3491
a(I12399
F0.083501683501683507
tp3492
a(I12560
F0.083501683501683507
tp3493
a(I12642
F0.083501683501683507
tp3494
a(I66126
F0.083501683501683507
tp3495
a(I248158
F0.079646017699115043
tp3496
a(I217542
F0.078085642317380355
tp3497
a(I225661
F0.06990521327014218
tp3498
a(I225373
F0.068965517241379309
tp3499
a(I206055
F0.067621776504298001
tp3500
a(I2118
F0.067198177676537588
tp3501
a(I225664
F0.067016317016317023
tp3502
a(I141075
F0.066422594142259414
tp3503
a(I141441
F0.066422594142259414
tp3504
a(I223937
F0.066255778120184905
tp3505
a(I224866
F0.066255778120184905
tp3506
a(I224371
F0.065128205128205122
tp3507
a(I225964
F0.065128205128205122
tp3508
a(I69492
F0.064549180327868855
tp3509
a(I129033
F0.063357972544878557
tp3510
a(I156343
F0.056932966023875112
tp3511
a(I198063
F0.056932966023875112
tp3512
a(I32642
F0.056569343065693431
tp3513
a(I117083
F0.056569343065693431
tp3514
a(I225659
F0.055992141453831044
tp3515
a(I225706
F0.054726368159203981
tp3516
a(I225660
F0.0544435548438751
tp3517
a(I177314
F0.052789699570815453
tp3518
a(I2124
F0.051912568306010931
tp3519
a(I115439
F0.047739754964089567
tp3520
a(I183664
F0.047472677595628412
tp3521
a(I255833
F0.046539862403885066
tp3522
a(I256190
F0.046153846153846156
tp3523
a(I256416
F0.046135646687697159
tp3524
a(I182516
F0.046031746031746035
tp3525
a(I255988
F0.045963229416466828
tp3526
a(I79250
F0.045643153526970952
tp3527
a(I79249
F0.045627376425855515
tp3528
a(I205592
F0.04555984555984556
tp3529
a(I79260
F0.044866920152091254
tp3530
a(I27340
F0.044700793078586876
tp3531
a(I206051
F0.043826086956521737
tp3532
a(I2114
F0.043765196248697465
tp3533
a(I206053
F0.042725988700564974
tp3534
a(I2116
F0.042680776014109349
tp3535
a(I145051
F0.041912019397298231
tp3536
a(I206057
F0.04169491525423729
tp3537
a(I2120
F0.041666666666666664
tp3538
a(I246237
F0.041537933401991071
tp3539
a(I177310
F0.04036535061873895
tp3540
a(I225665
F0.038911644236395551
tp3541
a(I239065
F0.036840462066812366
tp3542
a(I1211
F0.035747590923220392
tp3543
a(I204169
F0.034954407294832825
tp3544
a(I204690
F0.034954407294832825
tp3545
a(I95316
F0.034664657121326298
tp3546
a(I203634
F0.03431743628564219
tp3547
a(I137428
F0.034215784215784216
tp3548
a(I137477
F0.034215784215784216
tp3549
a(I95335
F0.034085213032581455
tp3550
a(I219539
F0.034076672513154597
tp3551
a(I137398
F0.033151904997525974
tp3552
a(I137447
F0.033151904997525974
tp3553
a(I38522
F0.031742406942224251
tp3554
a(I252279
F0.031289427201614942
tp3555
a(I223671
F0.030569606333846491
tp3556
a(I223685
F0.030569606333846491
tp3557
a(I223692
F0.030569606333846491
tp3558
a(I223700
F0.030569606333846491
tp3559
a(I223707
F0.030569606333846491
tp3560
a(I223678
F0.030562884784520669
tp3561
a(I30880
F0.029292281376951036
tp3562
a(I158572
F0.029119482320314305
tp3563
a(I196601
F0.028031687995124923
tp3564
a(I196576
F0.027986209693774081
tp3565
a(I196584
F0.027986209693774081
tp3566
a(I196592
F0.027986209693774081
tp3567
a(I196615
F0.027986209693774081
tp3568
a(I97597
F0.023572551073860661
tp3569
a(I252278
F0.023527391379014252
tp3570
atp3571
a(I98145
(lp3572
(I98145
F1
tp3573
a(I98182
F1
tp3574
a(I22250
F0.97938144329896903
tp3575
a(I22375
F0.97938144329896903
tp3576
a(I24020
F0.97938144329896903
tp3577
a(I95384
F0.97938144329896903
tp3578
a(I95402
F0.97938144329896903
tp3579
a(I95412
F0.97938144329896903
tp3580
a(I127981
F0.97938144329896903
tp3581
a(I22859
F0.96938775510204078
tp3582
a(I95394
F0.96938775510204078
tp3583
a(I106368
F0.96938775510204078
tp3584
a(I22000
F0.96907216494845361
tp3585
a(I22188
F0.088372093023255813
tp3586
a(I23958
F0.086956521739130432
tp3587
a(I21938
F0.086757990867579904
tp3588
a(I90357
F0.074656188605108059
tp3589
a(I22805
F0.073288331726133082
tp3590
a(I163665
F0.065040650406504072
tp3591
a(I40594
F0.062652563059397884
tp3592
a(I162872
F0.061142397425583264
tp3593
a(I218378
F0.060126582278481014
tp3594
a(I217899
F0.06007905138339921
tp3595
a(I218845
F0.06007905138339921
tp3596
a(I219219
F0.06007905138339921
tp3597
a(I97409
F0.059968847352024922
tp3598
a(I40590
F0.059782608695652176
tp3599
a(I40596
F0.059597523219814243
tp3600
a(I6166
F0.058411214953271028
tp3601
a(I2190
F0.057364341085271317
tp3602
a(I248158
F0.053883834849545134
tp3603
a(I6135
F0.053342816500711238
tp3604
a(I6172
F0.053342816500711238
tp3605
a(I256192
F0.05185185185185185
tp3606
a(I256418
F0.05185185185185185
tp3607
a(I225664
F0.046622833233711893
tp3608
a(I225661
F0.046060606060606059
tp3609
a(I225659
F0.04124748490945674
tp3610
a(I69492
F0.040625000000000001
tp3611
a(I162385
F0.040128410914927769
tp3612
a(I223937
F0.039583333333333331
tp3613
a(I224866
F0.039583333333333331
tp3614
a(I225706
F0.038266482249884742
tp3615
a(I79593
F0.037276341948310136
tp3616
a(I79764
F0.037109375
tp3617
a(I10926
F0.036510194404931244
tp3618
a(I9372
F0.035697510568341945
tp3619
a(I79172
F0.034878384580082605
tp3620
a(I79954
F0.034878384580082605
tp3621
a(I34827
F0.032341526520051747
tp3622
a(I225660
F0.031919191919191917
tp3623
a(I241069
F0.031829170024174055
tp3624
a(I255833
F0.031700288184438041
tp3625
a(I255988
F0.031300813008130084
tp3626
a(I182516
F0.031060911657926585
tp3627
a(I256190
F0.030861723446893786
tp3628
a(I256416
F0.030849358974358976
tp3629
a(I79249
F0.030490158240061752
tp3630
a(I79250
F0.029839326702371844
tp3631
a(I79260
F0.028924026224450443
tp3632
a(I162383
F0.028878193261754906
tp3633
a(I27340
F0.02696793002915452
tp3634
a(I145051
F0.026647966339410939
tp3635
a(I2116
F0.026409707351891507
tp3636
a(I246237
F0.02640722724113968
tp3637
a(I183664
F0.026107866712469941
tp3638
a(I206057
F0.026054165238258483
tp3639
a(I2120
F0.026036313806097978
tp3640
a(I225665
F0.025406203840472673
tp3641
a(I239065
F0.024336283185840708
tp3642
a(I1211
F0.023929471032745592
tp3643
a(I177310
F0.022821576763485476
tp3644
a(I252279
F0.021151885830784912
tp3645
a(I136920
F0.020345879959308241
tp3646
a(I95316
F0.02020712301086133
tp3647
a(I204169
F0.020117137764196588
tp3648
a(I204690
F0.020117137764196588
tp3649
a(I95335
F0.019914292916561632
tp3650
a(I137428
F0.019839276745354094
tp3651
a(I137477
F0.019839276745354094
tp3652
a(I203634
F0.019791930981984267
tp3653
a(I219539
F0.019652305366591082
tp3654
a(I137398
F0.019412643106022896
tp3655
a(I137447
F0.019412643106022896
tp3656
a(I38522
F0.018123422803395274
tp3657
a(I158572
F0.017923649906890129
tp3658
a(I30880
F0.017845624596860891
tp3659
a(I223671
F0.017675651789659744
tp3660
a(I223685
F0.017675651789659744
tp3661
a(I223692
F0.017675651789659744
tp3662
a(I223700
F0.017675651789659744
tp3663
a(I223707
F0.017675651789659744
tp3664
a(I223678
F0.017671747294013697
tp3665
a(I196601
F0.017153359199509905
tp3666
a(I196576
F0.017125382262996942
tp3667
a(I196584
F0.017125382262996942
tp3668
a(I196592
F0.017125382262996942
tp3669
a(I196615
F0.017125382262996942
tp3670
a(I252278
F0.015018125323666495
tp3671
a(I97597
F0.01403016485443704
tp3672
atp3673
a(I98146
(lp3674
(I98146
F1
tp3675
a(I98183
F1
tp3676
a(I22001
F0.98496240601503759
tp3677
a(I22251
F0.98496240601503759
tp3678
a(I22376
F0.98496240601503759
tp3679
a(I24021
F0.98496240601503759
tp3680
a(I127982
F0.98496240601503759
tp3681
a(I163665
F0.08286403861625101
tp3682
a(I103618
F0.070103092783505155
tp3683
a(I248158
F0.070090215128383065
tp3684
a(I22146
F0.069958847736625515
tp3685
a(I77988
F0.069958847736625515
tp3686
a(I21896
F0.069863013698630141
tp3687
a(I23916
F0.069863013698630141
tp3688
a(I12478
F0.067947838023335622
tp3689
a(I12399
F0.067530695770804908
tp3690
a(I12560
F0.067530695770804908
tp3691
a(I12642
F0.067530695770804908
tp3692
a(I66126
F0.067530695770804908
tp3693
a(I22901
F0.06720977596741344
tp3694
a(I225664
F0.059905100830367736
tp3695
a(I141075
F0.056114346214928536
tp3696
a(I141441
F0.056114346214928536
tp3697
a(I224371
F0.055007784120394393
tp3698
a(I225964
F0.055007784120394393
tp3699
a(I225373
F0.054921152800435018
tp3700
a(I223937
F0.053941908713692949
tp3701
a(I224866
F0.053941908713692949
tp3702
a(I183616
F0.053283100107642624
tp3703
a(I69492
F0.052250387997930678
tp3704
a(I173652
F0.052072800808897875
tp3705
a(I225706
F0.050987597611391822
tp3706
a(I225659
F0.05089820359281437
tp3707
a(I183678
F0.050433010697911361
tp3708
a(I47934
F0.050381679389312976
tp3709
a(I138231
F0.050381679389312976
tp3710
a(I79246
F0.04954954954954955
tp3711
a(I79593
F0.049431537320810674
tp3712
a(I79764
F0.049052938319572609
tp3713
a(I205464
F0.048356807511737092
tp3714
a(I205513
F0.048356807511737092
tp3715
a(I205558
F0.048356807511737092
tp3716
a(I205657
F0.048356807511737092
tp3717
a(I205612
F0.048259860788863108
tp3718
a(I47956
F0.048220973782771535
tp3719
a(I142452
F0.048198408984557795
tp3720
a(I47901
F0.04806346243583761
tp3721
a(I47981
F0.04806346243583761
tp3722
a(I27343
F0.047958214624881292
tp3723
a(I79172
F0.047074954296160876
tp3724
a(I79954
F0.047074954296160876
tp3725
a(I156343
F0.045854562297359888
tp3726
a(I32642
F0.045559134836631383
tp3727
a(I117083
F0.045559134836631383
tp3728
a(I225660
F0.044354838709677422
tp3729
a(I34827
F0.04426299957026214
tp3730
a(I79250
F0.040824112933994655
tp3731
a(I79260
F0.040800615858352582
tp3732
a(I205592
F0.040625000000000001
tp3733
a(I79249
F0.039170506912442393
tp3734
a(I27340
F0.038573508005822418
tp3735
a(I206057
F0.037328767123287671
tp3736
a(I2120
F0.037303216974674883
tp3737
a(I206053
F0.037076648841354726
tp3738
a(I2116
F0.037037037037037035
tp3739
a(I183664
F0.035983550376970527
tp3740
a(I145051
F0.035277680754453374
tp3741
a(I2114
F0.034591194968553458
tp3742
a(I239065
F0.033753943217665616
tp3743
a(I225665
F0.033598585322723251
tp3744
a(I177310
F0.031962118970109497
tp3745
a(I1211
F0.031367628607277293
tp3746
a(I252279
F0.029276985743380855
tp3747
a(I95316
F0.02904040404040404
tp3748
a(I204169
F0.029022403258655804
tp3749
a(I204690
F0.029022403258655804
tp3750
a(I95335
F0.028729838709677418
tp3751
a(I219539
F0.02872260015117158
tp3752
a(I203634
F0.028665651953323185
tp3753
a(I137428
F0.028621641978408236
tp3754
a(I137477
F0.028621641978408236
tp3755
a(I137398
F0.028116446877332668
tp3756
a(I137447
F0.028116446877332668
tp3757
a(I136920
F0.026369168356997971
tp3758
a(I38522
F0.02614678899082569
tp3759
a(I158572
F0.025110439432690073
tp3760
a(I223671
F0.024950320158975491
tp3761
a(I223685
F0.024950320158975491
tp3762
a(I223692
F0.024950320158975491
tp3763
a(I223700
F0.024950320158975491
tp3764
a(I223707
F0.024950320158975491
tp3765
a(I223678
F0.024944812362030905
tp3766
a(I30880
F0.024264547992269701
tp3767
a(I196601
F0.023042414355628059
tp3768
a(I196576
F0.023004885993485342
tp3769
a(I196584
F0.023004885993485342
tp3770
a(I196592
F0.023004885993485342
tp3771
a(I196615
F0.023004885993485342
tp3772
a(I252278
F0.020527859237536656
tp3773
a(I97597
F0.019271198318149965
tp3774
atp3775
a(I98147
(lp3776
(I98147
F1
tp3777
a(I98184
F0.875
tp3778
a(I22002
F0.8098591549295775
tp3779
a(I22252
F0.8098591549295775
tp3780
a(I22377
F0.8098591549295775
tp3781
a(I24022
F0.8098591549295775
tp3782
a(I127983
F0.7151515151515152
tp3783
a(I163665
F0.08233413269384493
tp3784
a(I40596
F0.076161462300076158
tp3785
a(I248158
F0.071181755355908774
tp3786
a(I12478
F0.06903622693096377
tp3787
a(I12399
F0.068614130434782608
tp3788
a(I12560
F0.068614130434782608
tp3789
a(I12642
F0.068614130434782608
tp3790
a(I66126
F0.068614130434782608
tp3791
a(I22901
F0.068289384719405002
tp3792
a(I256192
F0.067109634551495018
tp3793
a(I256418
F0.067109634551495018
tp3794
a(I217542
F0.06480304955527319
tp3795
a(I3511
F0.061323618700667881
tp3796
a(I225664
F0.059622195985832349
tp3797
a(I225373
F0.058120586637696904
tp3798
a(I223937
F0.056994818652849742
tp3799
a(I224866
F0.056994818652849742
tp3800
a(I141075
F0.055321390937829291
tp3801
a(I141441
F0.055321390937829291
tp3802
a(I224371
F0.05478036175710594
tp3803
a(I225964
F0.05478036175710594
tp3804
a(I69492
F0.054752066115702477
tp3805
a(I79593
F0.051307350764676865
tp3806
a(I225659
F0.050695825049701791
tp3807
a(I79764
F0.050387596899224806
tp3808
a(I225706
F0.047445255474452552
tp3809
a(I47901
F0.047397769516728624
tp3810
a(I47981
F0.047397769516728624
tp3811
a(I32642
F0.047312815801561783
tp3812
a(I117083
F0.047312815801561783
tp3813
a(I205464
F0.047196261682242988
tp3814
a(I205513
F0.047196261682242988
tp3815
a(I205558
F0.047196261682242988
tp3816
a(I205657
F0.047196261682242988
tp3817
a(I156343
F0.047134935304990758
tp3818
a(I198063
F0.047134935304990758
tp3819
a(I47956
F0.047064305684995339
tp3820
a(I142452
F0.047042384722869118
tp3821
a(I79172
F0.046903460837887066
tp3822
a(I79954
F0.046903460837887066
tp3823
a(I205612
F0.046629732225300091
tp3824
a(I225660
F0.045472837022132798
tp3825
a(I255833
F0.043798608268522311
tp3826
a(I256190
F0.043478260869565216
tp3827
a(I256416
F0.043460925039872408
tp3828
a(I182516
F0.043338683788121987
tp3829
a(I255988
F0.043249797898140666
tp3830
a(I79250
F0.041888804265041886
tp3831
a(I205592
F0.040903778730035062
tp3832
a(I79260
F0.040675364543361472
tp3833
a(I79249
F0.038652889399158057
tp3834
a(I162383
F0.037867647058823527
tp3835
a(I27340
F0.037708484408992021
tp3836
a(I206053
F0.036602700781805261
tp3837
a(I2116
F0.036563720269790559
tp3838
a(I246237
F0.035578583765112262
tp3839
a(I183664
F0.035531260676460542
tp3840
a(I145051
F0.035179380006966215
tp3841
a(I2114
F0.034855350296270481
tp3842
a(I206057
F0.034400544959128067
tp3843
a(I2120
F0.034377127297481283
tp3844
a(I239065
F0.033668974197608559
tp3845
a(I225665
F0.032305433186490456
tp3846
a(I177310
F0.032191376255168339
tp3847
a(I1211
F0.031934877896055106
tp3848
a(I95316
F0.02872260015117158
tp3849
a(I204169
F0.028702057404114807
tp3850
a(I204690
F0.028702057404114807
tp3851
a(I252279
F0.028433612592028434
tp3852
a(I95335
F0.028413376917274327
tp3853
a(I203634
F0.028347253859782335
tp3854
a(I137428
F0.028306613226452906
tp3855
a(I137477
F0.028306613226452906
tp3856
a(I219539
F0.027889447236180906
tp3857
a(I137398
F0.027805362462760674
tp3858
a(I137447
F0.027805362462760674
tp3859
a(I136920
F0.027615910818343047
tp3860
a(I38522
F0.02656894182317911
tp3861
a(I223671
F0.025810721376571807
tp3862
a(I223685
F0.025810721376571807
tp3863
a(I223692
F0.025810721376571807
tp3864
a(I223700
F0.025810721376571807
tp3865
a(I223707
F0.025810721376571807
tp3866
a(I223678
F0.025805028672254079
tp3867
a(I158572
F0.025539818899465987
tp3868
a(I30880
F0.024442538593481989
tp3869
a(I196601
F0.023421588594704685
tp3870
a(I196576
F0.02338348922326149
tp3871
a(I196584
F0.02338348922326149
tp3872
a(I196592
F0.02338348922326149
tp3873
a(I196615
F0.02338348922326149
tp3874
a(I252278
F0.020323802962452637
tp3875
a(I97597
F0.019957983193277309
tp3876
atp3877
a.