(lp1
((I69486
I122494
tp2
S'0'
tp3
a((I69486
I101234
tp4
S'0'
tp5
a((I69486
I103227
tp6
S'0'
tp7
a((I69486
I138360
tp8
S'0'
tp9
a((I69486
I19213
tp10
S'0'
tp11
a((I69486
I57930
tp12
S'0'
tp13
a((I69486
I57969
tp14
S'0'
tp15
a((I69486
I74584
tp16
S'0'
tp17
a((I69486
I74684
tp18
S'0'
tp19
a((I69486
I74795
tp20
S'0'
tp21
a((I69486
I74906
tp22
S'0'
tp23
a((I69486
I74990
tp24
S'0'
tp25
a((I69486
I75077
tp26
S'0'
tp27
a((I69486
I116490
tp28
S'0'
tp29
a((I69486
I13157
tp30
S'0'
tp31
a((I69486
I8110
tp32
S'0'
tp33
a((I69486
I1704
tp34
S'0'
tp35
a((I69486
I1931
tp36
S'0'
tp37
a((I69486
I7394
tp38
S'0'
tp39
a((I69486
I7597
tp40
S'0'
tp41
a((I69486
I518
tp42
S'0'
tp43
a((I69486
I70416
tp44
S'0'
tp45
a((I69486
I101843
tp46
S'0'
tp47
a((I69486
I3501
tp48
S'0'
tp49
a((I69486
I3771
tp50
S'0'
tp51
a((I69486
I545
tp52
S'0'
tp53
a((I69486
I44441
tp54
S'0'
tp55
a((I69486
I44476
tp56
S'0'
tp57
a((I69486
I44511
tp58
S'0'
tp59
a((I69486
I14198
tp60
S'0'
tp61
a((I69486
I4685
tp62
S'0'
tp63
a((I69486
I20313
tp64
S'0'
tp65
a((I69494
I69574
tp66
S'0'
tp67
a((I69496
I69577
tp68
S'1'
tp69
a((I69496
I81253
tp70
S'1'
tp71
a((I69496
I94387
tp72
S'1'
tp73
a((I69496
I94516
tp74
S'0'
tp75
a((I69496
I131737
tp76
S'0'
tp77
a((I69496
I94601
tp78
S'0'
tp79
a((I69496
I94682
tp80
S'0'
tp81
a((I69496
I94763
tp82
S'0'
tp83
a((I69496
I134106
tp84
S'0'
tp85
a((I69496
I28708
tp86
S'0'
tp87
a((I69496
I28784
tp88
S'0'
tp89
a((I69496
I28860
tp90
S'0'
tp91
a((I69496
I110118
tp92
S'0'
tp93
a((I69496
I59610
tp94
S'0'
tp95
a((I69496
I27181
tp96
S'0'
tp97
a((I69496
I27190
tp98
S'0'
tp99
a((I69496
I27222
tp100
S'0'
tp101
a((I69496
I27254
tp102
S'0'
tp103
a((I69496
I4158
tp104
S'0'
tp105
a((I69496
I17678
tp106
S'0'
tp107
a((I69496
I17691
tp108
S'0'
tp109
a((I69496
I17704
tp110
S'0'
tp111
a((I69496
I17717
tp112
S'0'
tp113
a((I69496
I84722
tp114
S'0'
tp115
a((I69496
I117621
tp116
S'0'
tp117
a((I69496
I130615
tp118
S'0'
tp119
a((I69496
I34501
tp120
S'0'
tp121
a((I69496
I34518
tp122
S'0'
tp123
a((I69496
I34535
tp124
S'0'
tp125
a((I69496
I22049
tp126
S'0'
tp127
a((I69496
I24069
tp128
S'0'
tp129
a((I69496
I138905
tp130
S'0'
tp131
a((I69496
I31534
tp132
S'0'
tp133
a((I69496
I31568
tp134
S'0'
tp135
a((I69496
I31602
tp136
S'0'
tp137
a((I69496
I56275
tp138
S'0'
tp139
a((I69496
I56336
tp140
S'0'
tp141
a((I69496
I56411
tp142
S'0'
tp143
a((I69496
I56486
tp144
S'0'
tp145
a((I69496
I23385
tp146
S'0'
tp147
a((I69496
I23820
tp148
S'0'
tp149
a((I69496
I29960
tp150
S'0'
tp151
a((I69496
I29979
tp152
S'0'
tp153
a((I69496
I30004
tp154
S'0'
tp155
a((I69496
I30050
tp156
S'0'
tp157
a((I69496
I30075
tp158
S'0'
tp159
a((I69496
I69506
tp160
S'0'
tp161
a((I69496
I2139
tp162
S'0'
tp163
a((I69496
I29897
tp164
S'0'
tp165
a((I69496
I34385
tp166
S'0'
tp167
a((I69496
I69627
tp168
S'0'
tp169
a((I69496
I4029
tp170
S'0'
tp171
a((I69496
I61139
tp172
S'0'
tp173
a((I69496
I99928
tp174
S'0'
tp175
a((I69497
I131738
tp176
S'1'
tp177
a((I69498
I131739
tp178
S'1'
tp179
a((I69500
I28712
tp180
S'1'
tp181
a((I69500
I28788
tp182
S'1'
tp183
a((I69500
I28864
tp184
S'1'
tp185
a((I69500
I81255
tp186
S'1'
tp187
a((I69500
I131742
tp188
S'1'
tp189
a((I69502
I69604
tp190
S'0'
tp191
a((I69502
I94414
tp192
S'0'
tp193
a((I69502
I131762
tp194
S'0'
tp195
a((I69504
I69623
tp196
S'0'
tp197
a((I69504
I94433
tp198
S'0'
tp199
a((I69504
I110215
tp200
S'0'
tp201
a((I69504
I131789
tp202
S'0'
tp203
a((I69504
I28778
tp204
S'0'
tp205
a((I69504
I28854
tp206
S'0'
tp207
a((I69504
I28930
tp208
S'0'
tp209
a((I69504
I2154
tp210
S'0'
tp211
a((I69504
I81283
tp212
S'0'
tp213
a((I69504
I22974
tp214
S'0'
tp215
a((I69504
I94232
tp216
S'0'
tp217
a((I69504
I94199
tp218
S'0'
tp219
a((I69504
I56407
tp220
S'0'
tp221
a((I69504
I56482
tp222
S'0'
tp223
a((I69504
I56557
tp224
S'0'
tp225
a((I69504
I82394
tp226
S'0'
tp227
a((I69504
I4178
tp228
S'0'
tp229
a((I69505
I94436
tp230
S'1'
tp231
a((I69506
I69627
tp232
S'1'
tp233
a((I69506
I98545
tp234
S'1'
tp235
a((I69506
I137696
tp236
S'1'
tp237
a((I69506
I94437
tp238
S'1'
tp239
a((I69506
I17678
tp240
S'1'
tp241
a((I69506
I17691
tp242
S'1'
tp243
a((I69506
I17704
tp244
S'1'
tp245
a((I69506
I17717
tp246
S'1'
tp247
a((I69506
I31534
tp248
S'0'
tp249
a((I69506
I31568
tp250
S'0'
tp251
a((I69506
I31602
tp252
S'0'
tp253
a((I69506
I94516
tp254
S'0'
tp255
a((I69506
I94169
tp256
S'0'
tp257
a((I69506
I94202
tp258
S'0'
tp259
a((I69506
I22049
tp260
S'0'
tp261
a((I69506
I24069
tp262
S'0'
tp263
a((I69506
I134106
tp264
S'0'
tp265
a((I69506
I3950
tp266
S'0'
tp267
a((I69506
I3985
tp268
S'0'
tp269
a((I69506
I59610
tp270
S'0'
tp271
a((I69506
I23385
tp272
S'0'
tp273
a((I69506
I23820
tp274
S'0'
tp275
a((I69506
I27181
tp276
S'0'
tp277
a((I69506
I27190
tp278
S'0'
tp279
a((I69506
I27222
tp280
S'0'
tp281
a((I69506
I27254
tp282
S'0'
tp283
a((I69506
I69496
tp284
S'0'
tp285
a((I69506
I2139
tp286
S'0'
tp287
a((I69506
I29937
tp288
S'0'
tp289
a((I69506
I84722
tp290
S'0'
tp291
a((I69506
I106861
tp292
S'0'
tp293
a((I69506
I130615
tp294
S'0'
tp295
a((I69506
I19139
tp296
S'0'
tp297
a((I69506
I69577
tp298
S'0'
tp299
a((I69506
I28708
tp300
S'0'
tp301
a((I69506
I28784
tp302
S'0'
tp303
a((I69506
I28860
tp304
S'0'
tp305
a((I69506
I29960
tp306
S'0'
tp307
a((I69506
I29979
tp308
S'0'
tp309
a((I69506
I30004
tp310
S'0'
tp311
a((I69506
I30050
tp312
S'0'
tp313
a((I69506
I30075
tp314
S'0'
tp315
a((I69506
I110118
tp316
S'0'
tp317
a((I69506
I132688
tp318
S'0'
tp319
a((I69506
I4158
tp320
S'0'
tp321
a((I69506
I4029
tp322
S'0'
tp323
a((I69506
I61139
tp324
S'0'
tp325
a((I69506
I103181
tp326
S'0'
tp327
a((I69506
I69364
tp328
S'0'
tp329
a((I69507
I56337
tp330
S'1'
tp331
a((I69507
I56412
tp332
S'1'
tp333
a((I69507
I56487
tp334
S'1'
tp335
a((I69507
I34502
tp336
S'1'
tp337
a((I69507
I34519
tp338
S'1'
tp339
a((I69507
I34536
tp340
S'1'
tp341
a((I69507
I98546
tp342
S'1'
tp343
a((I69507
I137697
tp344
S'1'
tp345
a((I69508
I98547
tp346
S'1'
tp347
a((I69508
I137698
tp348
S'1'
tp349
a((I69509
I98548
tp350
S'1'
tp351
a((I69509
I137699
tp352
S'1'
tp353
a((I69511
I69632
tp354
S'1'
tp355
a((I69511
I94443
tp356
S'1'
tp357
a((I69512
I131743
tp358
S'1'
tp359
a((I69515
I69639
tp360
S'0'
tp361
a((I69515
I94450
tp362
S'0'
tp363
a((I69515
I110155
tp364
S'0'
tp365
a((I69515
I13028
tp366
S'0'
tp367
a((I69515
I94592
tp368
S'0'
tp369
a((I69515
I94673
tp370
S'0'
tp371
a((I69515
I94754
tp372
S'0'
tp373
a((I69515
I94835
tp374
S'0'
tp375
a((I69515
I134140
tp376
S'0'
tp377
a((I69515
I13036
tp378
S'0'
tp379
a((I69515
I13032
tp380
S'0'
tp381
a((I69515
I34507
tp382
S'0'
tp383
a((I69515
I34524
tp384
S'0'
tp385
a((I69515
I34541
tp386
S'0'
tp387
a((I69515
I56346
tp388
S'0'
tp389
a((I69515
I56421
tp390
S'0'
tp391
a((I69515
I56496
tp392
S'0'
tp393
a((I69515
I1552
tp394
S'0'
tp395
a((I69515
I118128
tp396
S'0'
tp397
a((I69518
I69677
tp398
S'1'
tp399
a((I69518
I94488
tp400
S'1'
tp401
a((I69519
I110196
tp402
S'0'
tp403
a((I69519
I69686
tp404
S'0'
tp405
a((I69519
I94497
tp406
S'0'
tp407
a((I69519
I95298
tp408
S'0'
tp409
a((I69519
I95300
tp410
S'0'
tp411
a((I69519
I95303
tp412
S'0'
tp413
a((I69519
I59659
tp414
S'0'
tp415
a((I69520
I69689
tp416
S'1'
tp417
a((I69520
I94500
tp418
S'1'
tp419
a((I69520
I110199
tp420
S'1'
tp421
a((I69520
I131793
tp422
S'1'
tp423
a((I69520
I134186
tp424
S'1'
tp425
a((I69520
I59656
tp426
S'1'
tp427
a((I69520
I82400
tp428
S'1'
tp429
a((I69520
I92388
tp430
S'1'
tp431
a((I69520
I92935
tp432
S'1'
tp433
a((I69521
I91429
tp434
S'1'
tp435
a((I69521
I132775
tp436
S'1'
tp437
a((I69521
I69693
tp438
S'1'
tp439
a((I69521
I94504
tp440
S'1'
tp441
a((I69521
I170
tp442
S'0'
tp443
a((I69522
I94515
tp444
S'1'
tp445
a((I69522
I118051
tp446
S'1'
tp447
a((I69522
I69704
tp448
S'1'
tp449
a((I69522
I110213
tp450
S'1'
tp451
a((I69522
I5623
tp452
S'1'
tp453
a((I69522
I34510
tp454
S'1'
tp455
a((I69522
I34527
tp456
S'1'
tp457
a((I69522
I34544
tp458
S'1'
tp459
a((I69522
I2153
tp460
S'1'
tp461
a((I69522
I42449
tp462
S'1'
tp463
a((I69522
I94679
tp464
S'1'
tp465
a((I69522
I94760
tp466
S'1'
tp467
a((I69522
I94841
tp468
S'1'
tp469
a((I69522
I134189
tp470
S'1'
tp471
a((I69522
I132709
tp472
S'1'
tp473
a((I69522
I94598
tp474
S'1'
tp475
a((I69522
I28781
tp476
S'1'
tp477
a((I69522
I28857
tp478
S'1'
tp479
a((I69522
I28933
tp480
S'1'
tp481
a((I69522
I59662
tp482
S'1'
tp483
a((I69522
I644
tp484
S'1'
tp485
a((I69522
I56402
tp486
S'1'
tp487
a((I69522
I56477
tp488
S'1'
tp489
a((I69522
I56552
tp490
S'1'
tp491
a((I69522
I4174
tp492
S'1'
tp493
a.