(lp1
(I69484
(lp2
(I69484
F1
tp3
a(I69704
F0.13404825737265416
tp4
a(I163665
F0.034174125305126118
tp5
a(I225663
F0.03408146300914381
tp6
a(I11913
F0.033444816053511704
tp7
a(I40594
F0.032599837000814993
tp8
a(I248158
F0.032371569317382123
tp9
a(I69206
F0.032284100080710247
tp10
a(I6135
F0.031473533619456366
tp11
a(I6172
F0.031473533619456366
tp12
a(I6166
F0.03125
tp13
a(I97409
F0.031201248049921998
tp14
a(I40590
F0.03110419906687403
tp15
a(I40596
F0.031007751937984496
tp16
a(I34837
F0.02911931818181818
tp17
a(I177315
F0.027353689567430027
tp18
a(I225664
F0.026378896882494004
tp19
a(I2125
F0.025940337224383919
tp20
a(I177311
F0.025194961007798441
tp21
a(I69492
F0.024581589958158997
tp22
a(I157261
F0.024347826086956521
tp23
a(I196238
F0.023590333716915997
tp24
a(I223937
F0.023535564853556484
tp25
a(I224866
F0.023535564853556484
tp26
a(I196241
F0.022805017103762829
tp27
a(I129033
F0.022114347357065803
tp28
a(I196225
F0.021810250817884406
tp29
a(I196249
F0.021810250817884406
tp30
a(I227156
F0.021647307286166841
tp31
a(I225659
F0.021629778672032193
tp32
a(I168944
F0.021609940572663425
tp33
a(I224371
F0.021387584767866459
tp34
a(I225964
F0.021387584767866459
tp35
a(I79593
F0.020937188434695914
tp36
a(I115365
F0.020477815699658702
tp37
a(I183680
F0.020330969267139481
tp38
a(I79764
F0.020058708414872797
tp39
a(I206060
F0.019950124688279301
tp40
a(I2123
F0.019910403185664508
tp41
a(I9372
F0.01977401129943503
tp42
a(I225706
F0.019345923537540305
tp43
a(I47956
F0.019312293923692887
tp44
a(I47901
F0.019248826291079813
tp45
a(I47981
F0.019248826291079813
tp46
a(I79172
F0.018850574712643679
tp47
a(I79954
F0.018850574712643679
tp48
a(I177314
F0.017880505887483647
tp49
a(I225660
F0.017806556050182113
tp50
a(I196257
F0.01760130986492018
tp51
a(I255833
F0.017319587628865981
tp52
a(I34827
F0.017278617710583154
tp53
a(I255988
F0.017100977198697069
tp54
a(I182516
F0.016969696969696971
tp55
a(I256190
F0.016860698514652751
tp56
a(I256416
F0.016853932584269662
tp57
a(I183664
F0.016551724137931035
tp58
a(I205592
F0.016091051805337521
tp59
a(I79250
F0.016085790884718499
tp60
a(I162383
F0.015943641082684465
tp61
a(I79260
F0.01544998068752414
tp62
a(I146160
F0.015195369030390739
tp63
a(I206057
F0.015120274914089347
tp64
a(I2120
F0.01510989010989011
tp65
a(I27340
F0.014974433893352812
tp66
a(I206053
F0.014679556032939491
tp67
a(I2116
F0.014663805436337626
tp68
a(I246237
F0.01461886529759833
tp69
a(I225665
F0.014484185634052616
tp70
a(I145051
F0.014396067415730338
tp71
a(I177310
F0.013365013365013365
tp72
a(I239065
F0.013291139240506329
tp73
a(I1211
F0.012925598991172762
tp74
a(I204169
F0.011989795918367347
tp75
a(I204690
F0.011989795918367347
tp76
a(I203634
F0.011950165268243072
tp77
a(I95316
F0.011889704022261574
tp78
a(I95335
F0.011868686868686869
tp79
a(I219539
F0.011865690482201464
tp80
a(I137428
F0.011823899371069183
tp81
a(I137477
F0.011823899371069183
tp82
a(I137398
F0.01172069825436409
tp83
a(I137447
F0.01172069825436409
tp84
a(I136920
F0.011713776419658773
tp85
a(I252279
F0.011213047910295617
tp86
a(I38522
F0.011031946678924385
tp87
a(I223671
F0.010621818986501438
tp88
a(I223685
F0.010621818986501438
tp89
a(I223692
F0.010621818986501438
tp90
a(I223700
F0.010621818986501438
tp91
a(I223707
F0.010621818986501438
tp92
a(I223678
F0.010619469026548672
tp93
a(I30880
F0.010111876075731498
tp94
a(I196576
F0.009585967774831736
tp95
a(I196584
F0.009585967774831736
tp96
a(I196592
F0.009585967774831736
tp97
a(I196615
F0.009585967774831736
tp98
a(I158572
F0.0095504309340787331
tp99
a(I196601
F0.0093954248366013068
tp100
a(I252278
F0.0084599447513812147
tp101
a(I97597
F0.0078975078975078977
tp102
atp103
a(I69485
(lp104
(I69485
F1
tp105
a(I69523
F1
tp106
a(I11888
F0.10000000000000001
tp107
a(I69486
F0.090909090909090912
tp108
a(I69524
F0.090909090909090912
tp109
a(I11887
F0.081081081081081086
tp110
a(I169356
F0.073170731707317069
tp111
a(I169362
F0.0625
tp112
a(I169369
F0.0625
tp113
a(I169376
F0.0625
tp114
a(I169383
F0.0625
tp115
a(I169390
F0.0625
tp116
a(I112538
F0.0625
tp117
a(I175057
F0.052631578947368418
tp118
a(I169391
F0.045454545454545456
tp119
a(I11892
F0.044117647058823532
tp120
a(I112532
F0.043478260869565216
tp121
a(I99969
F0.042253521126760563
tp122
a(I112528
F0.040540540540540543
tp123
a(I112534
F0.040540540540540543
tp124
a(I112540
F0.040540540540540543
tp125
a(I112531
F0.037037037037037035
tp126
a(I112537
F0.037037037037037035
tp127
a(I169377
F0.035294117647058823
tp128
a(I237162
F0.034482758620689655
tp129
a(I199345
F0.033707865168539325
tp130
a(I170327
F0.033707865168539325
tp131
a(I112541
F0.032608695652173912
tp132
a(I112529
F0.032608695652173912
tp133
a(I112535
F0.032608695652173912
tp134
a(I169358
F0.03125
tp135
a(I169365
F0.03125
tp136
a(I169372
F0.03125
tp137
a(I169379
F0.03125
tp138
a(I169386
F0.03125
tp139
a(I237163
F0.030927835051546393
tp140
a(I169361
F0.029999999999999999
tp141
a(I169368
F0.029999999999999999
tp142
a(I169375
F0.029999999999999999
tp143
a(I169382
F0.029999999999999999
tp144
a(I169389
F0.029999999999999999
tp145
a(I165753
F0.028301886792452831
tp146
a(I175059
F0.026785714285714284
tp147
a(I112530
F0.026315789473684209
tp148
a(I112536
F0.026315789473684209
tp149
a(I139860
F0.024793388429752067
tp150
a(I175060
F0.024390243902439025
tp151
a(I169359
F0.023076923076923078
tp152
a(I169366
F0.023076923076923078
tp153
a(I169373
F0.023076923076923078
tp154
a(I169380
F0.023076923076923078
tp155
a(I169387
F0.023076923076923078
tp156
a(I169360
F0.022556390977443608
tp157
a(I169367
F0.022556390977443608
tp158
a(I169374
F0.022556390977443608
tp159
a(I169381
F0.022556390977443608
tp160
a(I169388
F0.022556390977443608
tp161
a(I237851
F0.020689655172413793
tp162
a(I177468
F0.019607843137254902
tp163
a(I237164
F0.018987341772151899
tp164
a(I177738
F0.018072289156626505
tp165
a(I199339
F0.017857142857142856
tp166
a(I237161
F0.017751479289940829
tp167
a(I177096
F0.017241379310344827
tp168
a(I175058
F0.017045454545454544
tp169
a(I191849
F0.016574585635359115
tp170
a(I229926
F0.016393442622950821
tp171
a(I230556
F0.016393442622950821
tp172
a(I224293
F0.014018691588785047
tp173
a(I2470
F0.01098901098901099
tp174
a(I143522
F0.01098901098901099
tp175
a(I143507
F0.010948905109489052
tp176
a(I197994
F0.010526315789473684
tp177
a(I172560
F0.0077120822622107968
tp178
a(I136522
F0.0069605568445475635
tp179
a(I132678
F0.0067720090293453723
tp180
a(I199348
F0.0067567567567567571
tp181
a(I164005
F0.0062111801242236021
tp182
a(I201960
F0.0060728744939271256
tp183
a(I197615
F0.0058027079303675051
tp184
a(I200133
F0.0049668874172185433
tp185
a(I198019
F0.0048543689320388345
tp186
a(I144775
F0.0040214477211796247
tp187
a(I253111
F0.0033557046979865771
tp188
a(I197612
F0.0033185840707964601
tp189
a(I176525
F0.0031217481789802288
tp190
a(I176321
F0.0031023784901758012
tp191
a(I176364
F0.0031023784901758012
tp192
a(I176408
F0.0030120481927710845
tp193
a(I176260
F0.003003003003003003
tp194
a(I176464
F0.003003003003003003
tp195
a(I142071
F0.002976190476190476
tp196
a(I78241
F0.0025466893039049238
tp197
a(I78325
F0.002542372881355932
tp198
a(I78420
F0.002542372881355932
tp199
a(I177315
F0.0019243104554201411
tp200
a(I137249
F0.0017133066818960593
tp201
a(I177314
F0.0013169446883230904
tp202
a(I14179
F0.0011797090051120724
tp203
a(I1211
F0.00095026924295216978
tp204
atp205
a(I69486
(lp206
(I69486
F1
tp207
a(I69524
F1
tp208
a(I122494
F0.77142857142857146
tp209
a(I101234
F0.75
tp210
a(I103227
F0.75
tp211
a(I138360
F0.75
tp212
a(I206807
F0.75
tp213
a(I154366
F0.72972972972972971
tp214
a(I57930
F0.71052631578947367
tp215
a(I57969
F0.71052631578947367
tp216
a(I74584
F0.71052631578947367
tp217
a(I74684
F0.71052631578947367
tp218
a(I74795
F0.71052631578947367
tp219
a(I74906
F0.71052631578947367
tp220
a(I74990
F0.71052631578947367
tp221
a(I75077
F0.71052631578947367
tp222
a(I116490
F0.71052631578947367
tp223
a(I1704
F0.67500000000000004
tp224
a(I518
F0.6428571428571429
tp225
a(I70416
F0.6428571428571429
tp226
a(I101843
F0.6428571428571429
tp227
a(I545
F0.58333333333333337
tp228
a(I44441
F0.58333333333333337
tp229
a(I44476
F0.58333333333333337
tp230
a(I44511
F0.58333333333333337
tp231
a(I163584
F0.55102040816326525
tp232
a(I20313
F0.50943396226415094
tp233
a(I52831
F0.48214285714285715
tp234
a(I52839
F0.48214285714285715
tp235
a(I52847
F0.48214285714285715
tp236
a(I52855
F0.48214285714285715
tp237
a(I74043
F0.47368421052631576
tp238
a(I74052
F0.47368421052631576
tp239
a(I74061
F0.47368421052631576
tp240
a(I83825
F0.46551724137931033
tp241
a(I138955
F0.46551724137931033
tp242
a(I209312
F0.45000000000000001
tp243
a(I83832
F0.44262295081967212
tp244
a(I148351
F0.421875
tp245
a(I83816
F0.41538461538461541
tp246
a(I83840
F0.41538461538461541
tp247
a(I52952
F0.3888888888888889
tp248
a(I130797
F0.35999999999999999
tp249
a(I52922
F0.32558139534883723
tp250
a(I52967
F0.32558139534883723
tp251
a(I136259
F0.31818181818181818
tp252
a(I67568
F0.31764705882352939
tp253
a(I98298
F0.31764705882352939
tp254
a(I140201
F0.29166666666666669
tp255
a(I140224
F0.29166666666666669
tp256
a(I109303
F0.27551020408163263
tp257
a(I136237
F0.27184466019417475
tp258
a(I68198
F0.23684210526315788
tp259
a(I93500
F0.22500000000000001
tp260
a(I93522
F0.22500000000000001
tp261
a(I62593
F0.18243243243243243
tp262
a(I110529
F0.17763157894736842
tp263
a(I170665
F0.17763157894736842
tp264
a(I172831
F0.16463414634146342
tp265
a(I25841
F0.15517241379310345
tp266
a(I20026
F0.14285714285714285
tp267
a(I131116
F0.13106796116504854
tp268
a(I131140
F0.13106796116504854
tp269
a(I161925
F0.13106796116504854
tp270
a(I161949
F0.13106796116504854
tp271
a(I19909
F0.11914893617021277
tp272
a(I20055
F0.11914893617021277
tp273
a(I136522
F0.062068965517241378
tp274
a(I132678
F0.060402684563758392
tp275
a(I119445
F0.030927835051546393
tp276
a(I67725
F0.029999999999999999
tp277
a(I196187
F0.029966703662597113
tp278
a(I126545
F0.029001074113856069
tp279
a(I148246
F0.019410496046010063
tp280
a(I137249
F0.016543069024529379
tp281
a(I209494
F0.016260162601626018
tp282
a(I109302
F0.015503875968992248
tp283
a(I126355
F0.014917127071823204
tp284
a(I169204
F0.014713610089332634
tp285
a(I115575
F0.014388489208633094
tp286
a(I155611
F0.014388489208633094
tp287
a(I258875
F0.014344262295081968
tp288
a(I120583
F0.013177159590043924
tp289
a(I162383
F0.01042054335690361
tp290
a(I145051
F0.0095170955234402544
tp291
a(I204169
F0.0079263615443620553
tp292
a(I204690
F0.0079263615443620553
tp293
a(I203634
F0.0079001019367991848
tp294
a(I95316
F0.0078600405679513183
tp295
a(I95335
F0.0078461149076183238
tp296
a(I219539
F0.0078441295546558699
tp297
a(I137428
F0.007816439737771054
tp298
a(I137477
F0.007816439737771054
tp299
a(I137398
F0.0077480629842539362
tp300
a(I137447
F0.0077480629842539362
tp301
a(I136920
F0.0068859984697781174
tp302
a(I158572
F0.0063054647361046236
tp303
a(I38522
F0.0062111801242236021
tp304
a(I252278
F0.0050112320718852599
tp305
a(I97597
F0.0047443331576172906
tp306
atp307
a(I69487
(lp308
(I69487
F1
tp309
a(I69525
F1
tp310
a(I19946
F0.23430962343096234
tp311
a(I12441
F0.19081272084805653
tp312
a(I34823
F0.062358276643990927
tp313
a(I69492
F0.060072501294665979
tp314
a(I129024
F0.057754010695187166
tp315
a(I248158
F0.055668703326544465
tp316
a(I67725
F0.054766734279918863
tp317
a(I196187
F0.054711246200607903
tp318
a(I246233
F0.05218135158254919
tp319
a(I2844
F0.049731182795698922
tp320
a(I113094
F0.049371633752244168
tp321
a(I163665
F0.042177914110429447
tp322
a(I168240
F0.040887040887040885
tp323
a(I231210
F0.040887040887040885
tp324
a(I163486
F0.040858725761772852
tp325
a(I100762
F0.039893617021276598
tp326
a(I111916
F0.038781163434903045
tp327
a(I29078
F0.038579301898346602
tp328
a(I29250
F0.038579301898346602
tp329
a(I29225
F0.038534428300694881
tp330
a(I144104
F0.038515406162464988
tp331
a(I29200
F0.038187702265372166
tp332
a(I197833
F0.037697052775873888
tp333
a(I172915
F0.036217303822937627
tp334
a(I225659
F0.036185819070904644
tp335
a(I200804
F0.036136662286465178
tp336
a(I225661
F0.034382284382284384
tp337
a(I173342
F0.033031674208144797
tp338
a(I241066
F0.031879194630872486
tp339
a(I83855
F0.030917874396135265
tp340
a(I83895
F0.030917874396135265
tp341
a(I83932
F0.030917874396135265
tp342
a(I79246
F0.0302734375
tp343
a(I223937
F0.029707955689828803
tp344
a(I224866
F0.029707955689828803
tp345
a(I225373
F0.029520295202952029
tp346
a(I57309
F0.029411764705882353
tp347
a(I224371
F0.028657616892911009
tp348
a(I225964
F0.028657616892911009
tp349
a(I29163
F0.028442437923250564
tp350
a(I29132
F0.028416779431664412
tp351
a(I141075
F0.028161802355350742
tp352
a(I141441
F0.028161802355350742
tp353
a(I129033
F0.027993779160186624
tp354
a(I129028
F0.027962716378162451
tp355
a(I227156
F0.027947154471544715
tp356
a(I183680
F0.026508226691042046
tp357
a(I225660
F0.02641955835962145
tp358
a(I225706
F0.026315789473684209
tp359
a(I156343
F0.026208766380478987
tp360
a(I198063
F0.026208766380478987
tp361
a(I32642
F0.026044005388414906
tp362
a(I117083
F0.026044005388414906
tp363
a(I162383
F0.025009061254077564
tp364
a(I1211
F0.024518932340161389
tp365
a(I34827
F0.023889354568315171
tp366
a(I177314
F0.023668639053254437
tp367
a(I83886
F0.023608768971332208
tp368
a(I246237
F0.023168654173764906
tp369
a(I204169
F0.02269861286254729
tp370
a(I204690
F0.02269861286254729
tp371
a(I203634
F0.022624434389140271
tp372
a(I146160
F0.022614840989399292
tp373
a(I183664
F0.022566520714045132
tp374
a(I137428
F0.022388059701492536
tp375
a(I137477
F0.022388059701492536
tp376
a(I241069
F0.022326674500587545
tp377
a(I95316
F0.022255563890972743
tp378
a(I95335
F0.022216674987518722
tp379
a(I219539
F0.022211130521587224
tp380
a(I14179
F0.022061620387980221
tp381
a(I137398
F0.021942800788954636
tp382
a(I137447
F0.021942800788954636
tp383
a(I157934
F0.021394611727416798
tp384
a(I27340
F0.021011396011396011
tp385
a(I145051
F0.019520547945205479
tp386
a(I30880
F0.018309559293165852
tp387
a(I225665
F0.017929438982070563
tp388
a(I196601
F0.017806556050182113
tp389
a(I196576
F0.017777777777777778
tp390
a(I196584
F0.017777777777777778
tp391
a(I196592
F0.017777777777777778
tp392
a(I196615
F0.017777777777777778
tp393
a(I239065
F0.017316017316017316
tp394
a(I246598
F0.017223650385604115
tp395
a(I38522
F0.016768638114661227
tp396
a(I223671
F0.016597510373443983
tp397
a(I223685
F0.016597510373443983
tp398
a(I223692
F0.016597510373443983
tp399
a(I223700
F0.016597510373443983
tp400
a(I223707
F0.016597510373443983
tp401
a(I223678
F0.016593886462882096
tp402
a(I177310
F0.016260162601626018
tp403
a(I136920
F0.01525
tp404
a(I158572
F0.015151515151515152
tp405
a(I252279
F0.014253563390847712
tp406
a(I97597
F0.013381995133819951
tp407
a(I252278
F0.013331054520594771
tp408
atp409
a(I69488
(lp410
(I69488
F1
tp411
a(I69526
F1
tp412
a(I69493
F0.081560283687943269
tp413
a(I197501
F0.024203821656050957
tp414
a(I197212
F0.024111675126903553
tp415
a(I197273
F0.024111675126903553
tp416
a(I31358
F0.02369077306733167
tp417
a(I153529
F0.02369077306733167
tp418
a(I15181
F0.02258469259723965
tp419
a(I16543
F0.02258469259723965
tp420
a(I53484
F0.022432113341204249
tp421
a(I153569
F0.021590909090909091
tp422
a(I197335
F0.020948180815876516
tp423
a(I69689
F0.018356643356643356
tp424
a(I94500
F0.018356643356643356
tp425
a(I110199
F0.018356643356643356
tp426
a(I131793
F0.018356643356643356
tp427
a(I134186
F0.018340611353711789
tp428
a(I59656
F0.018001800180018002
tp429
a(I82400
F0.017918088737201365
tp430
a(I257308
F0.017907634307257305
tp431
a(I69520
F0.017316017316017316
tp432
a(I30509
F0.016605166051660517
tp433
a(I92388
F0.016542597187758478
tp434
a(I92935
F0.016542597187758478
tp435
a(I30565
F0.016528925619834711
tp436
a(I30636
F0.016528925619834711
tp437
a(I132927
F0.016253207869974338
tp438
a(I15358
F0.01601423487544484
tp439
a(I16720
F0.01601423487544484
tp440
a(I51719
F0.015424164524421594
tp441
a(I51808
F0.015424164524421594
tp442
a(I3493
F0.015267175572519083
tp443
a(I178821
F0.015175718849840255
tp444
a(I179551
F0.015175718849840255
tp445
a(I180280
F0.015175718849840255
tp446
a(I181009
F0.015175718849840255
tp447
a(I90585
F0.015071590052750565
tp448
a(I78138
F0.014671814671814672
tp449
a(I78525
F0.014671814671814672
tp450
a(I216210
F0.014581734458940905
tp451
a(I216095
F0.014570552147239263
tp452
a(I216321
F0.014570552147239263
tp453
a(I90581
F0.014448669201520912
tp454
a(I15784
F0.014372163388804841
tp455
a(I17146
F0.014372163388804841
tp456
a(I144104
F0.014115898959881129
tp457
a(I2844
F0.014044943820224719
tp458
a(I100762
F0.014025245441795231
tp459
a(I243302
F0.013868613138686132
tp460
a(I244267
F0.013868613138686132
tp461
a(I243531
F0.013848396501457727
tp462
a(I144271
F0.013738250180766449
tp463
a(I200804
F0.013194444444444444
tp464
a(I159005
F0.011706715958102279
tp465
a(I34838
F0.011635423400129283
tp466
a(I3511
F0.011131725417439703
tp467
a(I168561
F0.010644257703081233
tp468
a(I209494
F0.010264721772015126
tp469
a(I83570
F0.010209290454313425
tp470
a(I134465
F0.0099682827367467142
tp471
a(I155787
F0.0097267253358036126
tp472
a(I34825
F0.0096670247046186895
tp473
a(I149445
F0.0094786729857819912
tp474
a(I144669
F0.0087183958151700082
tp475
a(I115439
F0.0086542622241453909
tp476
a(I32642
F0.0083759888320148902
tp477
a(I155502
F0.0079002079002079006
tp478
a(I196257
F0.0077964710709889206
tp479
a(I225660
F0.0077047850770478512
tp480
a(I145051
F0.0073995771670190271
tp481
a(I162383
F0.007060572277963582
tp482
a(I83886
F0.006556245686680469
tp483
a(I239065
F0.0060260069774817635
tp484
a(I204169
F0.0058763413387838527
tp485
a(I204690
F0.0058763413387838527
tp486
a(I203634
F0.0058568882098293867
tp487
a(I95316
F0.0058272105396503671
tp488
a(I95335
F0.0058168942842690948
tp489
a(I219539
F0.0058154235145385586
tp490
a(I137428
F0.005794910556815319
tp491
a(I137477
F0.005794910556815319
tp492
a(I137398
F0.005744255744255744
tp493
a(I137447
F0.005744255744255744
tp494
a(I30880
F0.0047383157441309495
tp495
a(I38522
F0.0045987583352494824
tp496
a(I196601
F0.0044989775051124748
tp497
a(I196576
F0.00449162923642303
tp498
a(I196584
F0.00449162923642303
tp499
a(I196592
F0.00449162923642303
tp500
a(I196615
F0.00449162923642303
tp501
a(I158572
F0.0044340723453908989
tp502
a(I223671
F0.0044277175116227583
tp503
a(I223685
F0.0044277175116227583
tp504
a(I223692
F0.0044277175116227583
tp505
a(I223700
F0.0044277175116227583
tp506
a(I223707
F0.0044277175116227583
tp507
a(I223678
F0.004426737494466578
tp508
a(I97597
F0.0036893886156008433
tp509
a(I252278
F0.003453634950785702
tp510
atp511
a(I69489
(lp512
(I69489
F1
tp513
a(I69527
F1
tp514
a(I69494
F0.09498680738786279
tp515
a(I221916
F0.062015503875968991
tp516
a(I221597
F0.058375634517766499
tp517
a(I169966
F0.057500000000000002
tp518
a(I110208
F0.039867109634551492
tp519
a(I91429
F0.039792387543252594
tp520
a(I132775
F0.039792387543252594
tp521
a(I253198
F0.039087947882736153
tp522
a(I27188
F0.034578146611341634
tp523
a(I69521
F0.028935185185185185
tp524
a(I92881
F0.025246981339187707
tp525
a(I14188
F0.023421588594704685
tp526
a(I215039
F0.02311111111111111
tp527
a(I155
F0.018811136192626036
tp528
a(I214873
F0.018782870022539443
tp529
a(I163665
F0.018699186991869919
tp530
a(I14881
F0.018653690186536901
tp531
a(I16243
F0.018653690186536901
tp532
a(I248158
F0.0175561797752809
tp533
a(I12478
F0.015972222222222221
tp534
a(I12399
F0.015873015873015872
tp535
a(I12560
F0.015873015873015872
tp536
a(I12642
F0.015873015873015872
tp537
a(I66126
F0.015873015873015872
tp538
a(I22901
F0.015796703296703296
tp539
a(I153858
F0.015625
tp540
a(I84216
F0.015614392396469789
tp541
a(I2125
F0.015584415584415584
tp542
a(I206062
F0.01540436456996149
tp543
a(I183616
F0.014697876973326075
tp544
a(I177315
F0.014612452350698857
tp545
a(I225661
F0.013973268529769137
tp546
a(I225664
F0.013764213046080191
tp547
a(I69492
F0.013577023498694517
tp548
a(I27343
F0.013422818791946308
tp549
a(I34829
F0.013325608342989572
tp550
a(I156343
F0.013102480112306972
tp551
a(I198063
F0.013102480112306972
tp552
a(I32642
F0.013017201301720131
tp553
a(I117083
F0.013017201301720131
tp554
a(I206054
F0.012993762993762994
tp555
a(I183678
F0.012860082304526749
tp556
a(I2117
F0.012755102040816327
tp557
a(I224371
F0.012526096033402923
tp558
a(I225964
F0.012526096033402923
tp559
a(I206060
F0.012487512487512488
tp560
a(I2123
F0.012462612163509471
tp561
a(I183680
F0.011820330969267139
tp562
a(I225659
F0.011557788944723618
tp563
a(I27340
F0.010984987184181618
tp564
a(I205464
F0.01086443079829948
tp565
a(I205513
F0.01086443079829948
tp566
a(I205558
F0.01086443079829948
tp567
a(I205657
F0.01086443079829948
tp568
a(I47956
F0.010833725859632595
tp569
a(I142452
F0.010828625235404897
tp570
a(I47901
F0.0107981220657277
tp571
a(I47981
F0.0107981220657277
tp572
a(I205612
F0.010732617825478302
tp573
a(I173342
F0.010677808727948004
tp574
a(I225660
F0.010522055847834885
tp575
a(I129028
F0.010516689529035207
tp576
a(I79250
F0.010352760736196318
tp577
a(I206051
F0.0095170955234402544
tp578
a(I2114
F0.0095036958817317843
tp579
a(I205592
F0.0090266875981161697
tp580
a(I183664
F0.0089531680440771352
tp581
a(I145051
F0.0084299262381454156
tp582
a(I95316
F0.0081012658227848106
tp583
a(I95335
F0.0080869345463735146
tp584
a(I219539
F0.0080848913592723604
tp585
a(I137428
F0.0080563947633434038
tp586
a(I137477
F0.0080563947633434038
tp587
a(I137398
F0.0079860244571999008
tp588
a(I137447
F0.0079860244571999008
tp589
a(I225665
F0.0079716563330380873
tp590
a(I204169
F0.0079122001020929048
tp591
a(I204690
F0.0079122001020929048
tp592
a(I203634
F0.0078860340880183167
tp593
a(I1211
F0.0075685903500473037
tp594
a(I177310
F0.0074205995844464235
tp595
a(I38522
F0.0064323455088444751
tp596
a(I223671
F0.0061933200619332003
tp597
a(I223685
F0.0061933200619332003
tp598
a(I223692
F0.0061933200619332003
tp599
a(I223700
F0.0061933200619332003
tp600
a(I223707
F0.0061933200619332003
tp601
a(I223678
F0.0061919504643962852
tp602
a(I252279
F0.0061130922058074376
tp603
a(I30880
F0.0060228006022800601
tp604
a(I196601
F0.0059244126659856993
tp605
a(I196576
F0.0059147460738323476
tp606
a(I196584
F0.0059147460738323476
tp607
a(I196592
F0.0059147460738323476
tp608
a(I196615
F0.0059147460738323476
tp609
a(I158572
F0.0058261477511069677
tp610
a(I252278
F0.005699481865284974
tp611
a(I97597
F0.005091292134831461
tp612
atp613
a(I69490
(lp614
(I69490
F1
tp615
a(I69528
F1
tp616
a(I248157
F0.85507246376811596
tp617
a(I212909
F0.046169989506820566
tp618
a(I212858
F0.04607329842931937
tp619
a(I212962
F0.04607329842931937
tp620
a(I217047
F0.045696068012752389
tp621
a(I217177
F0.045696068012752389
tp622
a(I216693
F0.0446521287642783
tp623
a(I216807
F0.0446521287642783
tp624
a(I137267
F0.043216080402010047
tp625
a(I137256
F0.041548630783758263
tp626
a(I183600
F0.039413382218148489
tp627
a(I255785
F0.039162112932604735
tp628
a(I255905
F0.038669064748201441
tp629
a(I256061
F0.038530465949820791
tp630
a(I256287
F0.038530465949820791
tp631
a(I182430
F0.038290293855743542
tp632
a(I248158
F0.035211267605633804
tp633
a(I144253
F0.034108527131782945
tp634
a(I6166
F0.032786885245901641
tp635
a(I148246
F0.031383737517831668
tp636
a(I256192
F0.031081081081081083
tp637
a(I256418
F0.031081081081081083
tp638
a(I6135
F0.030670470756062766
tp639
a(I6172
F0.030670470756062766
tp640
a(I8664
F0.027290448343079921
tp641
a(I3511
F0.027093596059113302
tp642
a(I225664
F0.026331538001196888
tp643
a(I149669
F0.025825825825825825
tp644
a(I69492
F0.025614218504966021
tp645
a(I183616
F0.025571273122959738
tp646
a(I137249
F0.02491506228765572
tp647
a(I225659
F0.024169184290030211
tp648
a(I109302
F0.023639362286970864
tp649
a(I161810
F0.023587493143170598
tp650
a(I27343
F0.022999520843315763
tp651
a(I223937
F0.022964509394572025
tp652
a(I224866
F0.022964509394572025
tp653
a(I79593
F0.021923268560039861
tp654
a(I79764
F0.021526418786692758
tp655
a(I120583
F0.021359223300970873
tp656
a(I115365
F0.020944958597174865
tp657
a(I10926
F0.020892687559354226
tp658
a(I183680
F0.020784128483703354
tp659
a(I79172
F0.020229885057471263
tp660
a(I79954
F0.020229885057471263
tp661
a(I9372
F0.020225776105362182
tp662
a(I225706
F0.019788311090658078
tp663
a(I177314
F0.018744551002615517
tp664
a(I182516
F0.018593371059013743
tp665
a(I255833
F0.018556701030927835
tp666
a(I256190
F0.018473895582329317
tp667
a(I256416
F0.01846647932557206
tp668
a(I255988
F0.018322475570032574
tp669
a(I225660
F0.018196522442377679
tp670
a(I241069
F0.017734784361144701
tp671
a(I79250
F0.017624521072796936
tp672
a(I162383
F0.017433234421364987
tp673
a(I135441
F0.017331721080209594
tp674
a(I14179
F0.017200938232994525
tp675
a(I27340
F0.017184643510054845
tp676
a(I79260
F0.017001545595054096
tp677
a(I205592
F0.016869360533542564
tp678
a(I145051
F0.016520210896309315
tp679
a(I183664
F0.015834767641996556
tp680
a(I206057
F0.014756348661633494
tp681
a(I2120
F0.014746227709190672
tp682
a(I225665
F0.014471352628470172
tp683
a(I239065
F0.01359898798228969
tp684
a(I1211
F0.013551843681058934
tp685
a(I177310
F0.013052506674577276
tp686
a(I95316
F0.012904858299595142
tp687
a(I95335
F0.012626262626262626
tp688
a(I137428
F0.012578616352201259
tp689
a(I137477
F0.012578616352201259
tp690
a(I204169
F0.012496812037745473
tp691
a(I204690
F0.012496812037745473
tp692
a(I137398
F0.012468827930174564
tp693
a(I137447
F0.012468827930174564
tp694
a(I136920
F0.012219959266802444
tp695
a(I203634
F0.012198221092757306
tp696
a(I219539
F0.012112036336109008
tp697
a(I252279
F0.011977573904179408
tp698
a(I38522
F0.011024345429490124
tp699
a(I223671
F0.010614772224679346
tp700
a(I223685
F0.010614772224679346
tp701
a(I223692
F0.010614772224679346
tp702
a(I223700
F0.010614772224679346
tp703
a(I223707
F0.010614772224679346
tp704
a(I223678
F0.010612425381384037
tp705
a(I30880
F0.01032258064516129
tp706
a(I158572
F0.010013972985561248
tp707
a(I196601
F0.010008169934640522
tp708
a(I196576
F0.0099918433931484498
tp709
a(I196584
F0.0099918433931484498
tp710
a(I196592
F0.0099918433931484498
tp711
a(I196615
F0.0099918433931484498
tp712
a(I252278
F0.0088037286380113922
tp713
a(I97597
F0.0082470608878750656
tp714
atp715
a(I69491
(lp716
(I69491
F1
tp717
a(I69529
F1
tp718
a(I225632
F0.16569767441860464
tp719
a(I224226
F0.1601123595505618
tp720
a(I225155
F0.1601123595505618
tp721
a(I224017
F0.14081145584725538
tp722
a(I224946
F0.14081145584725538
tp723
a(I225663
F0.1008130081300813
tp724
a(I248158
F0.096662030598052853
tp725
a(I163665
F0.089116719242902209
tp726
a(I197833
F0.086280056577086275
tp727
a(I111916
F0.080965909090909088
tp728
a(I168240
F0.08085106382978724
tp729
a(I231210
F0.08085106382978724
tp730
a(I163486
F0.080793763288447909
tp731
a(I6135
F0.080779944289693595
tp732
a(I6172
F0.080779944289693595
tp733
a(I12478
F0.077183480027081919
tp734
a(I12399
F0.076716016150740238
tp735
a(I12560
F0.076716016150740238
tp736
a(I12642
F0.076716016150740238
tp737
a(I66126
F0.076716016150740238
tp738
a(I22901
F0.07635632953784327
tp739
a(I217542
F0.075126262626262624
tp740
a(I225661
F0.073476702508960573
tp741
a(I225664
F0.071764705882352939
tp742
a(I225373
F0.0710412147505423
tp743
a(I177315
F0.070763500931098691
tp744
a(I223937
F0.070429829104091138
tp745
a(I224866
F0.070429829104091138
tp746
a(I69492
F0.069250645994832036
tp747
a(I177311
F0.068742655699177438
tp748
a(I225659
F0.067830423940149626
tp749
a(I141075
F0.062827225130890049
tp750
a(I141441
F0.062827225130890049
tp751
a(I224371
F0.061056952283222166
tp752
a(I225964
F0.061056952283222166
tp753
a(I225706
F0.058314350797266518
tp754
a(I183678
F0.058022199798183655
tp755
a(I115365
F0.057101727447216893
tp756
a(I27343
F0.056550424128180961
tp757
a(I83570
F0.056331006979062813
tp758
a(I9372
F0.055169216504404268
tp759
a(I183680
F0.054883720930232562
tp760
a(I225660
F0.054640417838489351
tp761
a(I32642
F0.053424657534246578
tp762
a(I117083
F0.053424657534246578
tp763
a(I156343
F0.053284336242535597
tp764
a(I198063
F0.053284336242535597
tp765
a(I47956
F0.053265400648448355
tp766
a(I47901
F0.0530932594644506
tp767
a(I47981
F0.0530932594644506
tp768
a(I177314
F0.052994398965962947
tp769
a(I205612
F0.052776502983019731
tp770
a(I205464
F0.052436194895591648
tp771
a(I205513
F0.052436194895591648
tp772
a(I183664
F0.047978067169294036
tp773
a(I205592
F0.046529662659945716
tp774
a(I241069
F0.045689312673818039
tp775
a(I14179
F0.045138888888888888
tp776
a(I79250
F0.045007564296520426
tp777
a(I27340
F0.044468546637744036
tp778
a(I79260
F0.044224170796797559
tp779
a(I145051
F0.043493389004871257
tp780
a(I2120
F0.043211976862878532
tp781
a(I246237
F0.043103448275862072
tp782
a(I206057
F0.042176870748299317
tp783
a(I162383
F0.042047531992687383
tp784
a(I239065
F0.041837055677886127
tp785
a(I225665
F0.03992953611274222
tp786
a(I177310
F0.038019451812555262
tp787
a(I1211
F0.03552508569647865
tp788
a(I38522
F0.032753092075125972
tp789
a(I204169
F0.032674772036474162
tp790
a(I204690
F0.032674772036474162
tp791
a(I95316
F0.032403918613413712
tp792
a(I203634
F0.032306915699141847
tp793
a(I95335
F0.032088242667335169
tp794
a(I137428
F0.031968031968031968
tp795
a(I137477
F0.031968031968031968
tp796
a(I137398
F0.031946508172362553
tp797
a(I137447
F0.031946508172362553
tp798
a(I219539
F0.031821598596842894
tp799
a(I252279
F0.031621553250695676
tp800
a(I223671
F0.03153947948831054
tp801
a(I223685
F0.03153947948831054
tp802
a(I223692
F0.03153947948831054
tp803
a(I223700
F0.03153947948831054
tp804
a(I223707
F0.03153947948831054
tp805
a(I223678
F0.031532524807056227
tp806
a(I136920
F0.031060606060606059
tp807
a(I30880
F0.030673530673530673
tp808
a(I196601
F0.029339853300733496
tp809
a(I196576
F0.029292107404393815
tp810
a(I196584
F0.029292107404393815
tp811
a(I196592
F0.029292107404393815
tp812
a(I196615
F0.029292107404393815
tp813
a(I158572
F0.029180176007410838
tp814
a(I252278
F0.025680799724233021
tp815
a(I97597
F0.023072889355007866
tp816
atp817
a(I69492
(lp818
(I69492
F1
tp819
a(I248158
F0.56079170593779448
tp820
a(I225659
F0.33886010362694302
tp821
a(I223937
F0.32381615598885793
tp822
a(I224866
F0.32381615598885793
tp823
a(I225706
F0.32268578878748372
tp824
a(I225373
F0.32122507122507121
tp825
a(I225660
F0.31722054380664655
tp826
a(I224371
F0.29883879781420764
tp827
a(I225964
F0.29883879781420764
tp828
a(I141075
F0.29559532002752925
tp829
a(I141441
F0.29559532002752925
tp830
a(I225664
F0.28365211115120897
tp831
a(I162848
F0.28030303030303028
tp832
a(I183680
F0.27973145780051151
tp833
a(I183664
F0.27371777836832317
tp834
a(I183678
F0.27055702917771884
tp835
a(I129033
F0.2699490662139219
tp836
a(I225665
F0.26607485604606523
tp837
a(I79246
F0.2645519947678221
tp838
a(I79250
F0.26419336706014612
tp839
a(I83570
F0.26277850589777196
tp840
a(I10926
F0.26010101010101011
tp841
a(I256190
F0.25949367088607594
tp842
a(I256416
F0.25941903940178312
tp843
a(I191061
F0.25915127955944284
tp844
a(I182516
F0.25851125216387766
tp845
a(I255988
F0.25811123986095019
tp846
a(I255833
F0.25750947798191892
tp847
a(I177314
F0.25608656447249772
tp848
a(I241069
F0.25560667050028751
tp849
a(I205612
F0.25318818040435459
tp850
a(I47901
F0.25304212168486739
tp851
a(I47981
F0.25304212168486739
tp852
a(I156343
F0.25132028580304444
tp853
a(I198063
F0.25132028580304444
tp854
a(I32642
F0.25100588053234291
tp855
a(I117083
F0.25100588053234291
tp856
a(I142452
F0.25077978789769184
tp857
a(I205592
F0.25077574047954865
tp858
a(I205464
F0.25054670415495156
tp859
a(I205513
F0.25054670415495156
tp860
a(I205558
F0.25054670415495156
tp861
a(I205657
F0.25054670415495156
tp862
a(I47956
F0.25046787273861509
tp863
a(I79593
F0.24975922953451044
tp864
a(I79764
F0.24920534011443102
tp865
a(I79172
F0.24800245851259989
tp866
a(I79954
F0.24800245851259989
tp867
a(I34827
F0.24407582938388625
tp868
a(I79260
F0.24243265759511246
tp869
a(I129028
F0.24101157830591102
tp870
a(I95316
F0.24097664543524416
tp871
a(I239065
F0.24004914004914005
tp872
a(I149445
F0.23993808049535603
tp873
a(I246237
F0.23990622557957803
tp874
a(I79249
F0.23988919667590028
tp875
a(I95335
F0.23983050847457626
tp876
a(I137428
F0.23933248838191803
tp877
a(I137477
F0.23933248838191803
tp878
a(I137398
F0.23731656184486374
tp879
a(I137447
F0.23731656184486374
tp880
a(I177310
F0.2363593603010348
tp881
a(I38522
F0.23545706371191136
tp882
a(I204169
F0.23528161530286928
tp883
a(I204690
F0.23528161530286928
tp884
a(I203634
F0.23411016949152541
tp885
a(I1211
F0.23395950231763846
tp886
a(I219539
F0.23272957034540859
tp887
a(I162383
F0.2325268817204301
tp888
a(I196257
F0.23179749715585893
tp889
a(I223671
F0.23023791250959325
tp890
a(I223685
F0.23023791250959325
tp891
a(I223692
F0.23023791250959325
tp892
a(I223700
F0.23023791250959325
tp893
a(I223707
F0.23023791250959325
tp894
a(I223678
F0.23019374640322271
tp895
a(I30880
F0.22839969947407965
tp896
a(I146160
F0.22782470960929249
tp897
a(I155502
F0.22688356164383561
tp898
a(I135441
F0.2250280583613917
tp899
a(I14179
F0.22457977404243593
tp900
a(I196576
F0.22234214786832163
tp901
a(I196584
F0.22234214786832163
tp902
a(I196592
F0.22234214786832163
tp903
a(I196615
F0.22234214786832163
tp904
a(I196601
F0.22178217821782178
tp905
a(I145051
F0.2216774193548387
tp906
a(I2120
F0.22038637519064566
tp907
a(I206057
F0.22018815153826596
tp908
a(I252279
F0.21840285055543912
tp909
a(I27340
F0.21492380451918025
tp910
a(I158572
F0.21323385038287845
tp911
a(I206053
F0.21154842050750905
tp912
a(I2116
F0.21107087428867047
tp913
a(I206051
F0.20127064803049555
tp914
a(I2114
F0.20076142131979696
tp915
a(I136920
F0.20008250825082508
tp916
a(I252278
F0.19107391910739191
tp917
a(I97597
F0.18174739137206042
tp918
atp919
a(I69493
(lp920
(I69493
F1
tp921
a(I248158
F0.13670033670033671
tp922
a(I3512
F0.12368421052631579
tp923
a(I69492
F0.11451942740286299
tp924
a(I3511
F0.11202830188679246
tp925
a(I225661
F0.1099476439790576
tp926
a(I162848
F0.10823258491652274
tp927
a(I227157
F0.10384615384615385
tp928
a(I168561
F0.10305958132045089
tp929
a(I225659
F0.10284035259549461
tp930
a(I227156
F0.10281329923273658
tp931
a(I161810
F0.10264550264550265
tp932
a(I129033
F0.098079916969382466
tp933
a(I34825
F0.097887686759402376
tp934
a(I191061
F0.094823415578132564
tp935
a(I79246
F0.094680331869204493
tp936
a(I223937
F0.094472361809045224
tp937
a(I83570
F0.094210009813542689
tp938
a(I225706
F0.093932584269662917
tp939
a(I19395
F0.093182932810201083
tp940
a(I47934
F0.092977250247279916
tp941
a(I138231
F0.092977250247279916
tp942
a(I47901
F0.091240875912408759
tp943
a(I47981
F0.091240875912408759
tp944
a(I47956
F0.091033851784080508
tp945
a(I79593
F0.090341182123978861
tp946
a(I142452
F0.089995431703974421
tp947
a(I79764
F0.089792060491493381
tp948
a(I205464
F0.089784699954191485
tp949
a(I205513
F0.089784699954191485
tp950
a(I205558
F0.089784699954191485
tp951
a(I205657
F0.089784699954191485
tp952
a(I205612
F0.089714544630720441
tp953
a(I183680
F0.088787185354691073
tp954
a(I10926
F0.087735415709692233
tp955
a(I156343
F0.086799276672694395
tp956
a(I198063
F0.086799276672694395
tp957
a(I32642
F0.086253369272237201
tp958
a(I117083
F0.086253369272237201
tp959
a(I9372
F0.08598726114649681
tp960
a(I155787
F0.085267857142857145
tp961
a(I129028
F0.085068675232609664
tp962
a(I79172
F0.085040071237756004
tp963
a(I79954
F0.085040071237756004
tp964
a(I155502
F0.083434588902389625
tp965
a(I241069
F0.083333333333333329
tp966
a(I34827
F0.083263246425567705
tp967
a(I134465
F0.082496726320384114
tp968
a(I79250
F0.081671057583741061
tp969
a(I225660
F0.080568720379146919
tp970
a(I177314
F0.080338266384778007
tp971
a(I115439
F0.080334728033472802
tp972
a(I144669
F0.079545454545454544
tp973
a(I205592
F0.078694817658349334
tp974
a(I256190
F0.077886497064579258
tp975
a(I256416
F0.07785602503912363
tp976
a(I255833
F0.077786688051323175
tp977
a(I255988
F0.077685295283392783
tp978
a(I182516
F0.07752853207398662
tp979
a(I196257
F0.075486690504568937
tp980
a(I162383
F0.07438316400580551
tp981
a(I183664
F0.07314595326786319
tp982
a(I14179
F0.072651198174210729
tp983
a(I79249
F0.072583678074464086
tp984
a(I246237
F0.072503419972640218
tp985
a(I79260
F0.072234762979683967
tp986
a(I145051
F0.071305545986910093
tp987
a(I146160
F0.068855932203389827
tp988
a(I1211
F0.068450528935905419
tp989
a(I239065
F0.066023045780130796
tp990
a(I225665
F0.063154831199068687
tp991
a(I177310
F0.062280701754385964
tp992
a(I95316
F0.057099924868519912
tp993
a(I204169
F0.056775170325510979
tp994
a(I204690
F0.056775170325510979
tp995
a(I95335
F0.056735816045988506
tp996
a(I137428
F0.056523904382470118
tp997
a(I137477
F0.056523904382470118
tp998
a(I203634
F0.056323862207694239
tp999
a(I252279
F0.056227937468482099
tp1000
a(I219539
F0.055930087390761551
tp1001
a(I137398
F0.055774925962487662
tp1002
a(I137447
F0.055774925962487662
tp1003
a(I136920
F0.055094339622641507
tp1004
a(I38522
F0.051912568306010931
tp1005
a(I158572
F0.050749711649365627
tp1006
a(I223671
F0.050230313665277471
tp1007
a(I223685
F0.050230313665277471
tp1008
a(I223692
F0.050230313665277471
tp1009
a(I223700
F0.050230313665277471
tp1010
a(I223707
F0.050230313665277471
tp1011
a(I223678
F0.050219298245614039
tp1012
a(I30880
F0.047517579373535054
tp1013
a(I196576
F0.046125834513453368
tp1014
a(I196584
F0.046125834513453368
tp1015
a(I196592
F0.046125834513453368
tp1016
a(I196615
F0.046125834513453368
tp1017
a(I196601
F0.045988654781199352
tp1018
a(I252278
F0.041401820992956535
tp1019
a(I97597
F0.040474528960223306
tp1020
atp1021
a(I69494
(lp1022
(I69494
F1
tp1023
a(I69574
F0.77127659574468088
tp1024
a(I215039
F0.19326383319967924
tp1025
a(I27341
F0.1867612293144208
tp1026
a(I103182
F0.18103448275862069
tp1027
a(I155
F0.16540317022742937
tp1028
a(I214873
F0.16437414030261349
tp1029
a(I248158
F0.15077319587628865
tp1030
a(I153858
F0.15075376884422109
tp1031
a(I84216
F0.15065913370998116
tp1032
a(I217542
F0.14422501496110113
tp1033
a(I225664
F0.13781512605042018
tp1034
a(I225661
F0.13654390934844193
tp1035
a(I183616
F0.13395157135497165
tp1036
a(I69492
F0.13052109181141439
tp1037
a(I224371
F0.13002481389578163
tp1038
a(I225964
F0.13002481389578163
tp1039
a(I225373
F0.1298499741334713
tp1040
a(I141075
F0.12966700302724521
tp1041
a(I141441
F0.12966700302724521
tp1042
a(I223937
F0.12952853598014888
tp1043
a(I224866
F0.12952853598014888
tp1044
a(I26147
F0.12413793103448276
tp1045
a(I27343
F0.11968935587026039
tp1046
a(I225659
F0.11958075273939972
tp1047
a(I225706
F0.1164021164021164
tp1048
a(I156343
F0.1159678858162355
tp1049
a(I198063
F0.1159678858162355
tp1050
a(I32642
F0.11574279379157427
tp1051
a(I117083
F0.11574279379157427
tp1052
a(I183678
F0.11508704061895551
tp1053
a(I47934
F0.11228915662650603
tp1054
a(I138231
F0.11228915662650603
tp1055
a(I173652
F0.11137667304015296
tp1056
a(I205612
F0.11047027506654836
tp1057
a(I142452
F0.10991957104557641
tp1058
a(I205464
F0.10976702508960573
tp1059
a(I205513
F0.10976702508960573
tp1060
a(I205558
F0.10976702508960573
tp1061
a(I205657
F0.10976702508960573
tp1062
a(I47956
F0.10947274352100089
tp1063
a(I47901
F0.10913140311804009
tp1064
a(I47981
F0.10913140311804009
tp1065
a(I225660
F0.1065989847715736
tp1066
a(I183680
F0.1043245653143112
tp1067
a(I27340
F0.10406272273699216
tp1068
a(I129028
F0.1002159827213823
tp1069
a(I241069
F0.096064814814814811
tp1070
a(I205592
F0.095291902071563087
tp1071
a(I79250
F0.095062638172439207
tp1072
a(I34827
F0.094555873925501438
tp1073
a(I79249
F0.093402520385470714
tp1074
a(I255833
F0.092977638289525308
tp1075
a(I255988
F0.09228383094222567
tp1076
a(I182516
F0.092029264536003075
tp1077
a(I256190
F0.091465748182166087
tp1078
a(I256416
F0.091430757459831674
tp1079
a(I196257
F0.089743589743589744
tp1080
a(I246237
F0.087058823529411758
tp1081
a(I79260
F0.086619977884260971
tp1082
a(I183664
F0.085382059800664448
tp1083
a(I206053
F0.083505154639175252
tp1084
a(I2116
F0.083419155509783724
tp1085
a(I206057
F0.08234126984126984
tp1086
a(I2120
F0.082286847323198936
tp1087
a(I225665
F0.081291438454886136
tp1088
a(I1211
F0.080452737840318145
tp1089
a(I206051
F0.078140788144156287
tp1090
a(I2114
F0.077673167451244113
tp1091
a(I145051
F0.077594894188780655
tp1092
a(I239065
F0.076758409785932721
tp1093
a(I95316
F0.071180555555555552
tp1094
a(I177310
F0.070895522388059698
tp1095
a(I95335
F0.070792079207920786
tp1096
a(I204169
F0.070429570429570432
tp1097
a(I204690
F0.070429570429570432
tp1098
a(I137428
F0.07026627218934911
tp1099
a(I137477
F0.07026627218934911
tp1100
a(I203634
F0.069935291189646587
tp1101
a(I252279
F0.069343976053878778
tp1102
a(I219539
F0.068922924901185775
tp1103
a(I137398
F0.068359375
tp1104
a(I137447
F0.068359375
tp1105
a(I136920
F0.063692688971499378
tp1106
a(I158572
F0.063056888279643591
tp1107
a(I38522
F0.060224719101123599
tp1108
a(I30880
F0.06004228329809725
tp1109
a(I223671
F0.057804719636284911
tp1110
a(I223685
F0.057804719636284911
tp1111
a(I223692
F0.057804719636284911
tp1112
a(I223700
F0.057804719636284911
tp1113
a(I223707
F0.057804719636284911
tp1114
a(I223678
F0.057792207792207791
tp1115
a(I196601
F0.057487437185929649
tp1116
a(I196576
F0.057395143487858721
tp1117
a(I196584
F0.057395143487858721
tp1118
a(I196592
F0.057395143487858721
tp1119
a(I196615
F0.057395143487858721
tp1120
a(I252278
F0.053171482304667464
tp1121
a(I97597
F0.049515235457063711
tp1122
atp1123
a(I69495
(lp1124
(I69495
F1
tp1125
a(I69576
F1
tp1126
a(I47282
F0.14893617021276595
tp1127
a(I47443
F0.14893617021276595
tp1128
a(I47608
F0.14893617021276595
tp1129
a(I47778
F0.14893617021276595
tp1130
a(I69577
F0.13207547169811321
tp1131
a(I69496
F0.12962962962962962
tp1132
a(I113063
F0.125
tp1133
a(I113106
F0.125
tp1134
a(I1243
F0.11864406779661017
tp1135
a(I1323
F0.11864406779661017
tp1136
a(I1404
F0.11864406779661017
tp1137
a(I17595
F0.11864406779661017
tp1138
a(I104404
F0.11864406779661017
tp1139
a(I112823
F0.11864406779661017
tp1140
a(I113066
F0.11290322580645161
tp1141
a(I1236
F0.087499999999999994
tp1142
a(I1316
F0.087499999999999994
tp1143
a(I1397
F0.087499999999999994
tp1144
a(I104399
F0.051470588235294115
tp1145
a(I49368
F0.046666666666666669
tp1146
a(I100668
F0.046666666666666669
tp1147
a(I49818
F0.043478260869565216
tp1148
a(I50386
F0.043478260869565216
tp1149
a(I50994
F0.043478260869565216
tp1150
a(I80711
F0.040697674418604654
tp1151
a(I113076
F0.03783783783783784
tp1152
a(I11856
F0.033816425120772944
tp1153
a(I34083
F0.028112449799196786
tp1154
a(I34085
F0.027027027027027029
tp1155
a(I34091
F0.027027027027027029
tp1156
a(I34097
F0.027027027027027029
tp1157
a(I20401
F0.023728813559322035
tp1158
a(I20399
F0.022801302931596091
tp1159
a(I20407
F0.022508038585209004
tp1160
a(I20405
F0.021806853582554516
tp1161
a(I47592
F0.021806853582554516
tp1162
a(I47762
F0.021806853582554516
tp1163
a(I20403
F0.021148036253776436
tp1164
a(I47427
F0.021148036253776436
tp1165
a(I8601
F0.020114942528735632
tp1166
a(I75948
F0.020114942528735632
tp1167
a(I76606
F0.020114942528735632
tp1168
a(I77264
F0.020114942528735632
tp1169
a(I9901
F0.017114914425427872
tp1170
a(I10285
F0.017031630170316302
tp1171
a(I10695
F0.017031630170316302
tp1172
a(I95253
F0.013232514177693762
tp1173
a(I1238
F0.012844036697247707
tp1174
a(I1318
F0.012844036697247707
tp1175
a(I1399
F0.012844036697247707
tp1176
a(I17590
F0.01282051282051282
tp1177
a(I112832
F0.012773722627737226
tp1178
a(I2487
F0.012152777777777778
tp1179
a(I16828
F0.010819165378670788
tp1180
a(I2362
F0.01078582434514638
tp1181
a(I15466
F0.01078582434514638
tp1182
a(I2969
F0.010769230769230769
tp1183
a(I2699
F0.010606060606060607
tp1184
a(I30499
F0.010294117647058823
tp1185
a(I30555
F0.010248901903367497
tp1186
a(I30626
F0.010248901903367497
tp1187
a(I69517
F0.0096153846153846159
tp1188
a(I14866
F0.0095238095238095247
tp1189
a(I16228
F0.0095238095238095247
tp1190
a(I110759
F0.0095108695652173919
tp1191
a(I8627
F0.008717310087173101
tp1192
a(I75974
F0.008717310087173101
tp1193
a(I76632
F0.008717310087173101
tp1194
a(I77290
F0.008717310087173101
tp1195
a(I30397
F0.0085261875761266752
tp1196
a(I30697
F0.0085261875761266752
tp1197
a(I52348
F0.007099391480730223
tp1198
a(I52402
F0.0070850202429149798
tp1199
a(I52459
F0.0070850202429149798
tp1200
a(I104171
F0.0070850202429149798
tp1201
a(I14806
F0.0068560235063663075
tp1202
a(I16168
F0.0068493150684931503
tp1203
a(I113094
F0.0068292682926829268
tp1204
a(I30509
F0.0065055762081784388
tp1205
a(I30565
F0.0064754856614246065
tp1206
a(I30636
F0.0064754856614246065
tp1207
a(I11913
F0.0059322033898305086
tp1208
a(I110773
F0.0058577405857740588
tp1209
a(I38759
F0.0058528428093645481
tp1210
a(I14881
F0.0057471264367816091
tp1211
a(I16243
F0.0057471264367816091
tp1212
a(I69206
F0.0057236304170073587
tp1213
a(I30415
F0.0055205047318611991
tp1214
a(I30715
F0.0055205047318611991
tp1215
a(I3511
F0.0043505282784338101
tp1216
a(I29163
F0.0032802249297094657
tp1217
a(I29132
F0.0032771535580524347
tp1218
a(I99685
F0.0032228360957642726
tp1219
a(I83886
F0.0024213075060532689
tp1220
a(I1211
F0.0022172949002217295
tp1221
a(I95316
F0.0017748478701825558
tp1222
a(I95335
F0.0017717033662363959
tp1223
a(I38522
F0.0016117890858853327
tp1224
atp1225
a(I69496
(lp1226
(I69496
F1
tp1227
a(I69577
F0.98113207547169812
tp1228
a(I81253
F0.96226415094339623
tp1229
a(I94387
F0.96226415094339623
tp1230
a(I94516
F0.89090909090909087
tp1231
a(I131737
F0.89090909090909087
tp1232
a(I94601
F0.875
tp1233
a(I94682
F0.875
tp1234
a(I94763
F0.875
tp1235
a(I134106
F0.875
tp1236
a(I28708
F0.85964912280701755
tp1237
a(I28784
F0.85964912280701755
tp1238
a(I28860
F0.85964912280701755
tp1239
a(I110118
F0.85964912280701755
tp1240
a(I59610
F0.8392857142857143
tp1241
a(I27181
F0.82758620689655171
tp1242
a(I27190
F0.82758620689655171
tp1243
a(I27222
F0.82758620689655171
tp1244
a(I27254
F0.82758620689655171
tp1245
a(I4158
F0.82456140350877194
tp1246
a(I17678
F0.82456140350877194
tp1247
a(I17691
F0.82456140350877194
tp1248
a(I17704
F0.82456140350877194
tp1249
a(I17717
F0.82456140350877194
tp1250
a(I84722
F0.82456140350877194
tp1251
a(I117621
F0.82456140350877194
tp1252
a(I130615
F0.82456140350877194
tp1253
a(I227795
F0.81355932203389836
tp1254
a(I22049
F0.81034482758620685
tp1255
a(I24069
F0.81034482758620685
tp1256
a(I138905
F0.81034482758620685
tp1257
a(I23385
F0.79661016949152541
tp1258
a(I23820
F0.79661016949152541
tp1259
a(I29960
F0.79661016949152541
tp1260
a(I29979
F0.79661016949152541
tp1261
a(I30004
F0.79661016949152541
tp1262
a(I30050
F0.79661016949152541
tp1263
a(I30075
F0.79661016949152541
tp1264
a(I69506
F0.79661016949152541
tp1265
a(I2139
F0.7931034482758621
tp1266
a(I29897
F0.7931034482758621
tp1267
a(I34385
F0.78333333333333333
tp1268
a(I167699
F0.78333333333333333
tp1269
a(I4029
F0.77049180327868849
tp1270
a(I155595
F0.58750000000000002
tp1271
a(I231956
F0.58024691358024694
tp1272
a(I144298
F0.55952380952380953
tp1273
a(I193593
F0.55952380952380953
tp1274
a(I258951
F0.5280898876404494
tp1275
a(I99928
F0.5161290322580645
tp1276
a(I26910
F0.46464646464646464
tp1277
a(I26919
F0.46464646464646464
tp1278
a(I26928
F0.46464646464646464
tp1279
a(I42643
F0.45192307692307693
tp1280
a(I42652
F0.45192307692307693
tp1281
a(I42663
F0.45192307692307693
tp1282
a(I42674
F0.45192307692307693
tp1283
a(I32546
F0.44761904761904764
tp1284
a(I28937
F0.44339622641509435
tp1285
a(I57107
F0.44339622641509435
tp1286
a(I98042
F0.44339622641509435
tp1287
a(I105844
F0.44339622641509435
tp1288
a(I42175
F0.41964285714285715
tp1289
a(I105924
F0.40517241379310343
tp1290
a(I32555
F0.3949579831932773
tp1291
a(I51210
F0.38211382113821141
tp1292
a(I51219
F0.38211382113821141
tp1293
a(I51228
F0.38211382113821141
tp1294
a(I121538
F0.37903225806451613
tp1295
a(I32534
F0.37301587301587302
tp1296
a(I32566
F0.37301587301587302
tp1297
a(I212734
F0.34306569343065696
tp1298
a(I60172
F0.25668449197860965
tp1299
a(I60193
F0.25263157894736843
tp1300
a(I60152
F0.24742268041237114
tp1301
a(I60212
F0.24742268041237114
tp1302
a(I13748
F0.19742489270386265
tp1303
a(I13377
F0.19658119658119658
tp1304
a(I13568
F0.19574468085106383
tp1305
a(I13942
F0.19574468085106383
tp1306
a(I14134
F0.19574468085106383
tp1307
a(I252683
F0.18352059925093633
tp1308
a(I252921
F0.18352059925093633
tp1309
a(I253486
F0.18352059925093633
tp1310
a(I206471
F0.18320610687022901
tp1311
a(I206552
F0.17910447761194029
tp1312
a(I14188
F0.048353909465020578
tp1313
a(I225665
F0.013901212658976633
tp1314
a(I95316
F0.012671059300557527
tp1315
a(I204169
F0.012519161982626469
tp1316
a(I204690
F0.012519161982626469
tp1317
a(I95335
F0.012392513909964592
tp1318
a(I137428
F0.012345679012345678
tp1319
a(I137477
F0.012345679012345678
tp1320
a(I203634
F0.012219959266802444
tp1321
a(I219539
F0.012133468149646108
tp1322
a(I137398
F0.011985018726591761
tp1323
a(I137447
F0.011985018726591761
tp1324
a(I158572
F0.011209715086408221
tp1325
a(I252278
F0.0088143795368129975
tp1326
atp1327
a(I69497
(lp1328
(I69497
F1
tp1329
a(I69578
F1
tp1330
a(I94388
F1
tp1331
a(I131738
F0.74757281553398058
tp1332
a(I28709
F0.37823834196891193
tp1333
a(I28785
F0.37823834196891193
tp1334
a(I28861
F0.37823834196891193
tp1335
a(I81254
F0.37823834196891193
tp1336
a(I110119
F0.375
tp1337
a(I94602
F0.34183673469387754
tp1338
a(I94683
F0.34183673469387754
tp1339
a(I94764
F0.34183673469387754
tp1340
a(I134107
F0.34183673469387754
tp1341
a(I94517
F0.32367149758454106
tp1342
a(I82987
F0.26359832635983266
tp1343
a(I83113
F0.26359832635983266
tp1344
a(I83239
F0.26359832635983266
tp1345
a(I83365
F0.26359832635983266
tp1346
a(I117570
F0.25471698113207547
tp1347
a(I41443
F0.25229357798165136
tp1348
a(I42337
F0.23943661971830985
tp1349
a(I82090
F0.17629179331306991
tp1350
a(I123324
F0.15561959654178675
tp1351
a(I221916
F0.13942307692307693
tp1352
a(I112672
F0.12528473804100229
tp1353
a(I252158
F0.11576354679802955
tp1354
a(I252428
F0.11576354679802955
tp1355
a(I253973
F0.11576354679802955
tp1356
a(I142231
F0.11029411764705882
tp1357
a(I253732
F0.11029411764705882
tp1358
a(I253198
F0.075153374233128831
tp1359
a(I69501
F0.069337442218798145
tp1360
a(I124734
F0.035034272658035034
tp1361
a(I11908
F0.033008252063015754
tp1362
a(I256192
F0.032938076416337288
tp1363
a(I256418
F0.032938076416337288
tp1364
a(I2844
F0.03192934782608696
tp1365
a(I76669
F0.030514939605848695
tp1366
a(I77327
F0.030514939605848695
tp1367
a(I8664
F0.030476190476190476
tp1368
a(I76011
F0.030476190476190476
tp1369
a(I117839
F0.029787234042553193
tp1370
a(I88351
F0.029224904701397714
tp1371
a(I121387
F0.028633171258779039
tp1372
a(I162385
F0.026856240126382307
tp1373
a(I115365
F0.026404224675948152
tp1374
a(I69492
F0.026113671274961597
tp1375
a(I9372
F0.025510204081632654
tp1376
a(I227156
F0.025375453133091662
tp1377
a(I165590
F0.025236593059936908
tp1378
a(I183616
F0.024455077086656035
tp1379
a(I162383
F0.02389705882352941
tp1380
a(I225659
F0.023164120256283883
tp1381
a(I27343
F0.023026315789473683
tp1382
a(I183680
F0.022273781902552203
tp1383
a(I173342
F0.021897810218978103
tp1384
a(I255988
F0.020465489566613163
tp1385
a(I255833
F0.020308692120227456
tp1386
a(I182516
F0.019498607242339833
tp1387
a(I256190
F0.01937524713325425
tp1388
a(I256416
F0.019367588932806323
tp1389
a(I155502
F0.018337408312958436
tp1390
a(I1211
F0.017489069331667707
tp1391
a(I27340
F0.017291066282420751
tp1392
a(I83886
F0.016304347826086956
tp1393
a(I183664
F0.01629881154499151
tp1394
a(I145051
F0.016279875303082784
tp1395
a(I146160
F0.016037063435495366
tp1396
a(I136920
F0.015672396359959553
tp1397
a(I246237
F0.015437392795883362
tp1398
a(I204169
F0.015182186234817813
tp1399
a(I204690
F0.015182186234817813
tp1400
a(I203634
F0.015132408575031526
tp1401
a(I95316
F0.015056461731493099
tp1402
a(I95335
F0.01503006012024048
tp1403
a(I219539
F0.015026296018031555
tp1404
a(I137428
F0.014973795857249813
tp1405
a(I137477
F0.014973795857249813
tp1406
a(I137398
F0.014342235410484669
tp1407
a(I137447
F0.014342235410484669
tp1408
a(I38522
F0.013917408167921514
tp1409
a(I30880
F0.013903743315508022
tp1410
a(I177310
F0.013485781295807681
tp1411
a(I196601
F0.013411908148750254
tp1412
a(I196576
F0.013390139987827145
tp1413
a(I196584
F0.013390139987827145
tp1414
a(I196592
F0.013390139987827145
tp1415
a(I196615
F0.013390139987827145
tp1416
a(I225665
F0.013111888111888112
tp1417
a(I223671
F0.012958488908412035
tp1418
a(I223685
F0.012958488908412035
tp1419
a(I223692
F0.012958488908412035
tp1420
a(I223700
F0.012958488908412035
tp1421
a(I223707
F0.012958488908412035
tp1422
a(I223678
F0.012955643390426
tp1423
a(I252279
F0.01287228672387683
tp1424
a(I246598
F0.012154124644427205
tp1425
a(I158572
F0.011783733826247689
tp1426
a(I252278
F0.011166466242913588
tp1427
a(I97597
F0.010298481410368302
tp1428
atp1429
a(I69498
(lp1430
(I69498
F1
tp1431
a(I69579
F1
tp1432
a(I94389
F1
tp1433
a(I131739
F0.87387387387387383
tp1434
a(I28709
F0.38341968911917096
tp1435
a(I28785
F0.38341968911917096
tp1436
a(I28861
F0.38341968911917096
tp1437
a(I81254
F0.38341968911917096
tp1438
a(I110119
F0.36633663366336633
tp1439
a(I82987
F0.33480176211453744
tp1440
a(I83113
F0.33480176211453744
tp1441
a(I83239
F0.33480176211453744
tp1442
a(I83365
F0.33480176211453744
tp1443
a(I31536
F0.32214765100671139
tp1444
a(I31570
F0.32214765100671139
tp1445
a(I31604
F0.32214765100671139
tp1446
a(I117570
F0.32178217821782179
tp1447
a(I94602
F0.31343283582089554
tp1448
a(I94683
F0.31343283582089554
tp1449
a(I94764
F0.31343283582089554
tp1450
a(I134107
F0.31343283582089554
tp1451
a(I94517
F0.30331753554502372
tp1452
a(I41443
F0.29857819905213268
tp1453
a(I123324
F0.26415094339622641
tp1454
a(I6944
F0.24056603773584906
tp1455
a(I42337
F0.22569444444444445
tp1456
a(I55226
F0.2076271186440678
tp1457
a(I55577
F0.20675105485232068
tp1458
a(I82090
F0.17933130699088146
tp1459
a(I169966
F0.13255813953488371
tp1460
a(I221597
F0.13176470588235295
tp1461
a(I69502
F0.12722298221614228
tp1462
a(I195271
F0.1174934725848564
tp1463
a(I195297
F0.1174934725848564
tp1464
a(I142231
F0.11547911547911548
tp1465
a(I253732
F0.11547911547911548
tp1466
a(I252158
F0.1100244498777506
tp1467
a(I221916
F0.10465116279069768
tp1468
a(I253198
F0.075038284839203676
tp1469
a(I195279
F0.058823529411764705
tp1470
a(I69501
F0.037341299477221805
tp1471
a(I109596
F0.030698889614630961
tp1472
a(I2844
F0.030508474576271188
tp1473
a(I256192
F0.030203545633617858
tp1474
a(I256418
F0.030203545633617858
tp1475
a(I183616
F0.028266666666666666
tp1476
a(I160085
F0.027858386535113175
tp1477
a(I117839
F0.027272727272727271
tp1478
a(I27343
F0.025906735751295335
tp1479
a(I156343
F0.025298988040478382
tp1480
a(I198063
F0.025298988040478382
tp1481
a(I32642
F0.025137111517367458
tp1482
a(I117083
F0.025137111517367458
tp1483
a(I115365
F0.02442528735632184
tp1484
a(I165590
F0.024146981627296588
tp1485
a(I9372
F0.024074074074074074
tp1486
a(I183680
F0.022737819025522042
tp1487
a(I162383
F0.02238532110091743
tp1488
a(I155787
F0.021276595744680851
tp1489
a(I225660
F0.020318725099601594
tp1490
a(I255988
F0.020048115477145148
tp1491
a(I182516
F0.019896538002387585
tp1492
a(I255833
F0.019886363636363636
tp1493
a(I27340
F0.019855595667870037
tp1494
a(I256190
F0.019770660340055358
tp1495
a(I256416
F0.019762845849802372
tp1496
a(I115439
F0.01905165114309907
tp1497
a(I83886
F0.01733514615907546
tp1498
a(I95316
F0.016582914572864323
tp1499
a(I95335
F0.016553799849510911
tp1500
a(I137428
F0.016491754122938532
tp1501
a(I137477
F0.016491754122938532
tp1502
a(I219539
F0.016294810729506143
tp1503
a(I204169
F0.016206634591035704
tp1504
a(I204690
F0.016206634591035704
tp1505
a(I203634
F0.016153457849570924
tp1506
a(I137398
F0.016097077761267953
tp1507
a(I137447
F0.016097077761267953
tp1508
a(I183664
F0.015603799185888738
tp1509
a(I177310
F0.015267175572519083
tp1510
a(I136920
F0.014386673397274103
tp1511
a(I1211
F0.014001244555071561
tp1512
a(I158572
F0.013888888888888888
tp1513
a(I252279
F0.013124684502776375
tp1514
a(I225665
F0.013108068744538305
tp1515
a(I30880
F0.011953041622198506
tp1516
a(I252278
F0.011859745617050534
tp1517
a(I38522
F0.011837013430457547
tp1518
a(I223671
F0.011401008550756413
tp1519
a(I223685
F0.011401008550756413
tp1520
a(I223692
F0.011401008550756413
tp1521
a(I223707
F0.011401008550756413
tp1522
a(I223678
F0.011398509425690487
tp1523
a(I196601
F0.011354420113544201
tp1524
a(I196576
F0.011336032388663968
tp1525
a(I196584
F0.011336032388663968
tp1526
a(I196592
F0.011336032388663968
tp1527
a(I196615
F0.011336032388663968
tp1528
a(I223700
F0.011179307321350284
tp1529
a(I97597
F0.0099441730635031408
tp1530
atp1531
a(I69499
(lp1532
(I69499
F1
tp1533
a(I69580
F1
tp1534
a(I94390
F1
tp1535
a(I131740
F1
tp1536
a(I193647
F0.35135135135135137
tp1537
a(I3952
F0.25233644859813081
tp1538
a(I3987
F0.25233644859813081
tp1539
a(I22998
F0.25233644859813081
tp1540
a(I23387
F0.25233644859813081
tp1541
a(I23433
F0.25233644859813081
tp1542
a(I23822
F0.25233644859813081
tp1543
a(I110119
F0.24043715846994534
tp1544
a(I31536
F0.23333333333333334
tp1545
a(I31570
F0.23333333333333334
tp1546
a(I31604
F0.23333333333333334
tp1547
a(I51534
F0.23333333333333334
tp1548
a(I94602
F0.22857142857142856
tp1549
a(I94683
F0.22857142857142856
tp1550
a(I94764
F0.22857142857142856
tp1551
a(I134107
F0.22857142857142856
tp1552
a(I117570
F0.2247191011235955
tp1553
a(I28709
F0.21787709497206703
tp1554
a(I28785
F0.21787709497206703
tp1555
a(I28861
F0.21787709497206703
tp1556
a(I81254
F0.21787709497206703
tp1557
a(I41443
F0.21621621621621623
tp1558
a(I94517
F0.21505376344086022
tp1559
a(I190158
F0.19685039370078741
tp1560
a(I82987
F0.18691588785046728
tp1561
a(I83113
F0.18691588785046728
tp1562
a(I83239
F0.18691588785046728
tp1563
a(I83365
F0.18691588785046728
tp1564
a(I6944
F0.16939890710382513
tp1565
a(I7792
F0.16556291390728478
tp1566
a(I42337
F0.155893536121673
tp1567
a(I55226
F0.14563106796116504
tp1568
a(I55577
F0.14492753623188406
tp1569
a(I98548
F0.14450867052023122
tp1570
a(I137699
F0.1388888888888889
tp1571
a(I69509
F0.13089005235602094
tp1572
a(I69630
F0.13089005235602094
tp1573
a(I94441
F0.13089005235602094
tp1574
a(I123324
F0.10312499999999999
tp1575
a(I82090
F0.10064935064935066
tp1576
a(I56339
F0.10000000000000001
tp1577
a(I56414
F0.10000000000000001
tp1578
a(I56489
F0.10000000000000001
tp1579
a(I112672
F0.066985645933014357
tp1580
a(I252158
F0.065789473684210523
tp1581
a(I252428
F0.065789473684210523
tp1582
a(I253973
F0.065789473684210523
tp1583
a(I221597
F0.064039408866995079
tp1584
a(I169966
F0.063106796116504854
tp1585
a(I69503
F0.059125964010282778
tp1586
a(I253198
F0.039808917197452227
tp1587
a(I69517
F0.03443708609271523
tp1588
a(I195279
F0.030668127053669222
tp1589
a(I111916
F0.018063583815028903
tp1590
a(I3512
F0.017135023989033583
tp1591
a(I135937
F0.016549968173138127
tp1592
a(I160085
F0.015929203539823009
tp1593
a(I165590
F0.015483182060864922
tp1594
a(I162385
F0.0144
tp1595
a(I115365
F0.012596899224806201
tp1596
a(I162383
F0.012204142011834319
tp1597
a(I9372
F0.012166588675713618
tp1598
a(I32642
F0.011059907834101382
tp1599
a(I145051
F0.0090909090909090905
tp1600
a(I27340
F0.0090876045074518349
tp1601
a(I206051
F0.0087596355991590748
tp1602
a(I2114
F0.00874737578726382
tp1603
a(I83886
F0.0085645769099006504
tp1604
a(I204169
F0.0081383519837232958
tp1605
a(I204690
F0.0081383519837232958
tp1606
a(I203634
F0.0081115335868187574
tp1607
a(I219539
F0.0080543669770953945
tp1608
a(I177310
F0.0079834417504435241
tp1609
a(I95316
F0.007816439737771054
tp1610
a(I95335
F0.0078026680090611629
tp1611
a(I137428
F0.0077733199598796392
tp1612
a(I137477
F0.0077733199598796392
tp1613
a(I137398
F0.0077056922694506589
tp1614
a(I137447
F0.0077056922694506589
tp1615
a(I158572
F0.0074435915329146311
tp1616
a(I136920
F0.0073585384420197918
tp1617
a(I30880
F0.006219172206733862
tp1618
a(I196601
F0.006111224281931147
tp1619
a(I196576
F0.0061012812690665044
tp1620
a(I196584
F0.0061012812690665044
tp1621
a(I196592
F0.0061012812690665044
tp1622
a(I196615
F0.0061012812690665044
tp1623
a(I223671
F0.0059510689883182722
tp1624
a(I223685
F0.0059510689883182722
tp1625
a(I223692
F0.0059510689883182722
tp1626
a(I223700
F0.0059510689883182722
tp1627
a(I223707
F0.0059510689883182722
tp1628
a(I223678
F0.0059497576024680476
tp1629
a(I38522
F0.0059496567505720821
tp1630
a(I252278
F0.0056847545219638239
tp1631
a(I97597
F0.0050779198038872347
tp1632
atp1633
a(I69500
(lp1634
(I69500
F1
tp1635
a(I69581
F1
tp1636
a(I94391
F1
tp1637
a(I28712
F0.70833333333333337
tp1638
a(I28788
F0.70833333333333337
tp1639
a(I28864
F0.70833333333333337
tp1640
a(I81255
F0.65079365079365081
tp1641
a(I131742
F0.61194029850746268
tp1642
a(I18499
F0.41176470588235292
tp1643
a(I124878
F0.41176470588235292
tp1644
a(I132223
F0.41176470588235292
tp1645
a(I82090
F0.13898305084745763
tp1646
a(I123324
F0.1111111111111111
tp1647
a(I69504
F0.074796747967479676
tp1648
a(I112672
F0.064903846153846159
tp1649
a(I242282
F0.026641294005708849
tp1650
a(I215039
F0.025573192239858905
tp1651
a(I74320
F0.024496937882764653
tp1652
a(I27341
F0.023396880415944541
tp1653
a(I100419
F0.023121387283236993
tp1654
a(I241954
F0.022819885900570498
tp1655
a(I242141
F0.022819885900570498
tp1656
a(I242359
F0.022801302931596091
tp1657
a(I178499
F0.022594142259414227
tp1658
a(I179958
F0.022594142259414227
tp1659
a(I180687
F0.022594142259414227
tp1660
a(I16243
F0.022580645161290321
tp1661
a(I162277
F0.022222222222222223
tp1662
a(I199858
F0.02197802197802198
tp1663
a(I44154
F0.021909233176838811
tp1664
a(I14881
F0.021756647864625302
tp1665
a(I69501
F0.021390374331550801
tp1666
a(I153858
F0.021002710027100271
tp1667
a(I84216
F0.02098849018280298
tp1668
a(I217542
F0.019267822736030827
tp1669
a(I225664
F0.017899761336515514
tp1670
a(I225373
F0.017515051997810619
tp1671
a(I223937
F0.016675351745700884
tp1672
a(I224866
F0.016675351745700884
tp1673
a(I141075
F0.016463090812533193
tp1674
a(I141441
F0.016463090812533193
tp1675
a(I156343
F0.016339869281045753
tp1676
a(I198063
F0.016339869281045753
tp1677
a(I183616
F0.016251354279523293
tp1678
a(I32642
F0.016233766233766232
tp1679
a(I117083
F0.016233766233766232
tp1680
a(I224371
F0.016137428422696512
tp1681
a(I225964
F0.016137428422696512
tp1682
a(I27343
F0.015766841853798376
tp1683
a(I225659
F0.015037593984962405
tp1684
a(I121387
F0.014786418400876232
tp1685
a(I227156
F0.014729089952656496
tp1686
a(I149445
F0.01460197833254828
tp1687
a(I183678
F0.014336917562724014
tp1688
a(I173342
F0.013895321908290875
tp1689
a(I27340
F0.013893967093235832
tp1690
a(I225660
F0.012918853451756156
tp1691
a(I255833
F0.011924342105263159
tp1692
a(I255988
F0.011774259033698742
tp1693
a(I182516
F0.011684125705076551
tp1694
a(I256190
F0.011609287429943955
tp1695
a(I206051
F0.01160745691171298
tp1696
a(I256416
F0.011604641856742696
tp1697
a(I2114
F0.011591148577449948
tp1698
a(I79249
F0.011171032357473035
tp1699
a(I145051
F0.010869565217391304
tp1700
a(I79250
F0.010305343511450382
tp1701
a(I225665
F0.010023584905660377
tp1702
a(I183664
F0.0099553724682457951
tp1703
a(I146160
F0.0097367472051929325
tp1704
a(I204169
F0.0096864644404792248
tp1705
a(I204690
F0.0096864644404792248
tp1706
a(I203634
F0.0096544715447154476
tp1707
a(I95316
F0.0096056622851365021
tp1708
a(I95335
F0.0095886954327529649
tp1709
a(I219539
F0.0095862764883955596
tp1710
a(I137428
F0.0095525389643036709
tp1711
a(I137477
F0.0095525389643036709
tp1712
a(I137398
F0.0094692250186892597
tp1713
a(I137447
F0.0094692250186892597
tp1714
a(I1211
F0.0091252359974826943
tp1715
a(I177310
F0.0082889283599763171
tp1716
a(I158572
F0.0081528068949452605
tp1717
a(I136920
F0.0081321473951715371
tp1718
a(I252279
F0.0078860340880183167
tp1719
a(I30880
F0.0075204125483455094
tp1720
a(I38522
F0.0073377665673010775
tp1721
a(I223671
F0.0072879858657243814
tp1722
a(I223685
F0.0072879858657243814
tp1723
a(I223692
F0.0072879858657243814
tp1724
a(I223700
F0.0072879858657243814
tp1725
a(I223707
F0.0072879858657243814
tp1726
a(I223678
F0.0072863766835946121
tp1727
a(I196601
F0.0071413997143440116
tp1728
a(I196576
F0.0071297616622530043
tp1729
a(I196584
F0.0071297616622530043
tp1730
a(I196592
F0.0071297616622530043
tp1731
a(I196615
F0.0071297616622530043
tp1732
a(I252278
F0.0063815108658157984
tp1733
a(I97597
F0.005432877672625307
tp1734
atp1735
a(I69501
(lp1736
(I69501
F1
tp1737
a(I117839
F0.23413379073756432
tp1738
a(I256192
F0.23242274966412899
tp1739
a(I256418
F0.23242274966412899
tp1740
a(I88351
F0.22552447552447552
tp1741
a(I121387
F0.22345483359746435
tp1742
a(I44148
F0.21279937180997252
tp1743
a(I183680
F0.20362473347547974
tp1744
a(I69492
F0.20347300868252172
tp1745
a(I115365
F0.20318725099601595
tp1746
a(I225373
F0.20202020202020202
tp1747
a(I227156
F0.20167109760729207
tp1748
a(I9372
F0.2013446567586695
tp1749
a(I223937
F0.19909672563041023
tp1750
a(I224866
F0.19909672563041023
tp1751
a(I255988
F0.19877774203924092
tp1752
a(I255833
F0.19844357976653695
tp1753
a(I183616
F0.197459584295612
tp1754
a(I182516
F0.19718759987216364
tp1755
a(I224371
F0.19677055951933908
tp1756
a(I225964
F0.19677055951933908
tp1757
a(I256190
F0.1965648854961832
tp1758
a(I27343
F0.19651121395514418
tp1759
a(I256416
F0.19650238473767886
tp1760
a(I183678
F0.19642857142857142
tp1761
a(I141075
F0.19597417394606911
tp1762
a(I141441
F0.19597417394606911
tp1763
a(I156343
F0.19342427422175587
tp1764
a(I198063
F0.19342427422175587
tp1765
a(I32642
F0.19289693593314763
tp1766
a(I117083
F0.19289693593314763
tp1767
a(I205612
F0.19252271139063593
tp1768
a(I142452
F0.19087719298245615
tp1769
a(I205464
F0.19009135628952917
tp1770
a(I205513
F0.19009135628952917
tp1771
a(I205558
F0.19009135628952917
tp1772
a(I205657
F0.19009135628952917
tp1773
a(I47901
F0.19005950297514876
tp1774
a(I47981
F0.19005950297514876
tp1775
a(I225659
F0.18891320204230488
tp1776
a(I47956
F0.1884413309982487
tp1777
a(I173652
F0.1871559633027523
tp1778
a(I191061
F0.18643453028654333
tp1779
a(I225706
F0.18607856650585802
tp1780
a(I205592
F0.18424317617866004
tp1781
a(I225660
F0.18331226295828065
tp1782
a(I79250
F0.18173515981735161
tp1783
a(I183664
F0.18127828054298642
tp1784
a(I162383
F0.17949479940564636
tp1785
a(I27340
F0.17813051146384479
tp1786
a(I79249
F0.17611212675198051
tp1787
a(I79172
F0.17576791808873721
tp1788
a(I79954
F0.17576791808873721
tp1789
a(I129028
F0.17505098572399727
tp1790
a(I241069
F0.17475728155339806
tp1791
a(I34827
F0.170859196341065
tp1792
a(I177314
F0.17011494252873563
tp1793
a(I155502
F0.16883529038400508
tp1794
a(I1211
F0.16741130091984233
tp1795
a(I79260
F0.16485507246376813
tp1796
a(I196257
F0.16457680250783699
tp1797
a(I246237
F0.15980968373915477
tp1798
a(I225665
F0.15858811831966194
tp1799
a(I95316
F0.1543046357615894
tp1800
a(I204169
F0.15389740173217856
tp1801
a(I204690
F0.15389740173217856
tp1802
a(I239065
F0.15360583181463161
tp1803
a(I95335
F0.15330396475770924
tp1804
a(I203634
F0.15319902590214746
tp1805
a(I137428
F0.15254609306409131
tp1806
a(I137477
F0.15254609306409131
tp1807
a(I136920
F0.15241470979175897
tp1808
a(I206053
F0.15229722064662507
tp1809
a(I219539
F0.15225522552255225
tp1810
a(I2116
F0.15216775290450552
tp1811
a(I145051
F0.15124405926754264
tp1812
a(I137398
F0.14988035675440506
tp1813
a(I137447
F0.14988035675440506
tp1814
a(I252279
F0.14901613973026753
tp1815
a(I177310
F0.14847809948032664
tp1816
a(I206051
F0.1435326842837274
tp1817
a(I2114
F0.14337315921089192
tp1818
a(I158572
F0.14206528433586532
tp1819
a(I2120
F0.14157119476268412
tp1820
a(I206057
F0.1413369713506139
tp1821
a(I38522
F0.14065666801783544
tp1822
a(I223700
F0.13780918727915195
tp1823
a(I223671
F0.13758586849852797
tp1824
a(I223685
F0.13758586849852797
tp1825
a(I223692
F0.13758586849852797
tp1826
a(I223707
F0.13758586849852797
tp1827
a(I223678
F0.13755886970172684
tp1828
a(I252278
F0.13592544987146529
tp1829
a(I30880
F0.1357361963190184
tp1830
a(I196601
F0.13167064001467083
tp1831
a(I196576
F0.13147775132759568
tp1832
a(I196584
F0.13147775132759568
tp1833
a(I196592
F0.13147775132759568
tp1834
a(I196615
F0.13147775132759568
tp1835
a(I97597
F0.11480652382475216
tp1836
atp1837
a(I69502
(lp1838
(I69502
F1
tp1839
a(I69604
F0.56786703601108035
tp1840
a(I94414
F0.56786703601108035
tp1841
a(I131762
F0.55983493810178819
tp1842
a(I123356
F0.46733668341708545
tp1843
a(I42371
F0.44874999999999998
tp1844
a(I125631
F0.42350061199510403
tp1845
a(I69501
F0.23812461443553362
tp1846
a(I256192
F0.18729641693811075
tp1847
a(I256418
F0.18729641693811075
tp1848
a(I88351
F0.17780115728563914
tp1849
a(I117839
F0.16582661290322581
tp1850
a(I121387
F0.16535796766743649
tp1851
a(I183616
F0.15885298133818843
tp1852
a(I227156
F0.14999999999999999
tp1853
a(I129033
F0.14959568733153639
tp1854
a(I44148
F0.1493624772313297
tp1855
a(I27343
F0.1468416735028712
tp1856
a(I83570
F0.14524421593830333
tp1857
a(I69492
F0.14491488432998689
tp1858
a(I47934
F0.14304179233089187
tp1859
a(I138231
F0.14304179233089187
tp1860
a(I205612
F0.14285714285714285
tp1861
a(I142452
F0.14210738796931771
tp1862
a(I205464
F0.14112414071977356
tp1863
a(I205513
F0.14112414071977356
tp1864
a(I205558
F0.14112414071977356
tp1865
a(I205657
F0.14112414071977356
tp1866
a(I47901
F0.14084507042253522
tp1867
a(I47981
F0.14084507042253522
tp1868
a(I47956
F0.14078257361839452
tp1869
a(I156343
F0.13834466213514593
tp1870
a(I198063
F0.13834466213514593
tp1871
a(I115365
F0.13831544178364988
tp1872
a(I32642
F0.13757455268389662
tp1873
a(I117083
F0.13757455268389662
tp1874
a(I183680
F0.13744457879887143
tp1875
a(I9372
F0.13700281237444756
tp1876
a(I149445
F0.13641851106639838
tp1877
a(I155787
F0.13641755634638197
tp1878
a(I129028
F0.13545347467608951
tp1879
a(I10926
F0.13392496974586526
tp1880
a(I255988
F0.13373969164575117
tp1881
a(I256190
F0.13328606876993973
tp1882
a(I256416
F0.13323883770375619
tp1883
a(I182516
F0.13323833273957963
tp1884
a(I255833
F0.13318856315598987
tp1885
a(I205592
F0.13266016713091922
tp1886
a(I27340
F0.13033486539724229
tp1887
a(I34827
F0.12859813084112148
tp1888
a(I79250
F0.12555140821174077
tp1889
a(I241069
F0.1253973860826563
tp1890
a(I115439
F0.12495351431759018
tp1891
a(I225660
F0.12411598302687411
tp1892
a(I79249
F0.12304021813224267
tp1893
a(I162383
F0.12195121951219512
tp1894
a(I155502
F0.11756272401433691
tp1895
a(I79260
F0.11589291765503219
tp1896
a(I183664
F0.11344019728729964
tp1897
a(I206053
F0.11330362826225335
tp1898
a(I246237
F0.11321928460342146
tp1899
a(I2116
F0.11319554848966613
tp1900
a(I14179
F0.11137602179836512
tp1901
a(I1211
F0.11057003723861358
tp1902
a(I206051
F0.106396255850234
tp1903
a(I2114
F0.10626363353069491
tp1904
a(I239065
F0.10425592687803485
tp1905
a(I206057
F0.10304878048780487
tp1906
a(I2120
F0.10298598415600244
tp1907
a(I145051
F0.10238907849829351
tp1908
a(I225665
F0.10226049515608181
tp1909
a(I95316
F0.10077885296200141
tp1910
a(I136920
F0.10037968675842431
tp1911
a(I204169
F0.10026134473746733
tp1912
a(I204690
F0.10026134473746733
tp1913
a(I95335
F0.10009420631182289
tp1914
a(I252279
F0.09997625267157445
tp1915
a(I137428
F0.099741844637409052
tp1916
a(I137477
F0.099741844637409052
tp1917
a(I177310
F0.099541408146749388
tp1918
a(I203634
F0.099431818181818177
tp1919
a(I219539
F0.099035521053869674
tp1920
a(I137398
F0.097141529165698348
tp1921
a(I137447
F0.097141529165698348
tp1922
a(I158572
F0.094372673527479745
tp1923
a(I38522
F0.085316184351554122
tp1924
a(I223671
F0.083247049078484153
tp1925
a(I223685
F0.083247049078484153
tp1926
a(I223692
F0.083247049078484153
tp1927
a(I223707
F0.083247049078484153
tp1928
a(I223678
F0.083229813664596267
tp1929
a(I252278
F0.083083583083583087
tp1930
a(I223700
F0.083022774327122156
tp1931
a(I30880
F0.082189014539579969
tp1932
a(I196601
F0.079530136722511066
tp1933
a(I196576
F0.079407806191117092
tp1934
a(I196584
F0.079407806191117092
tp1935
a(I196592
F0.079407806191117092
tp1936
a(I196615
F0.079407806191117092
tp1937
a(I97597
F0.072121820615796514
tp1938
atp1939
a(I69503
(lp1940
(I69503
F1
tp1941
a(I69501
F0.23930078360458107
tp1942
a(I256192
F0.18746680828465215
tp1943
a(I256418
F0.18746680828465215
tp1944
a(I88351
F0.18610679108346292
tp1945
a(I117839
F0.18514801806322129
tp1946
a(I121387
F0.18252873563218391
tp1947
a(I76669
F0.17928902627511592
tp1948
a(I77327
F0.17928902627511592
tp1949
a(I135937
F0.17829852266938359
tp1950
a(I8664
F0.17789203084832905
tp1951
a(I76011
F0.17789203084832905
tp1952
a(I162385
F0.17451772095109916
tp1953
a(I44148
F0.16530797101449277
tp1954
a(I183616
F0.16055456171735241
tp1955
a(I115365
F0.15759075907590758
tp1956
a(I227156
F0.15633187772925763
tp1957
a(I9372
F0.15529695024077048
tp1958
a(I129033
F0.1519434628975265
tp1959
a(I69492
F0.14875322441960448
tp1960
a(I27343
F0.14856681469519581
tp1961
a(I255833
F0.1471861471861472
tp1962
a(I183680
F0.14656549520766773
tp1963
a(I182516
F0.14620298083747338
tp1964
a(I255988
F0.14596716630977874
tp1965
a(I79246
F0.14578969417679094
tp1966
a(I191061
F0.14553014553014554
tp1967
a(I256190
F0.14537755822159493
tp1968
a(I256416
F0.14532627865961198
tp1969
a(I205612
F0.1437031188314252
tp1970
a(I149445
F0.14280031821797931
tp1971
a(I142452
F0.14115781126090404
tp1972
a(I162383
F0.14035667107001321
tp1973
a(I205464
F0.14019062748212868
tp1974
a(I205513
F0.14019062748212868
tp1975
a(I205558
F0.14019062748212868
tp1976
a(I205657
F0.14019062748212868
tp1977
a(I47901
F0.13947056499407348
tp1978
a(I47981
F0.13947056499407348
tp1979
a(I47956
F0.13940594059405942
tp1980
a(I10926
F0.13898845081640782
tp1981
a(I32642
F0.13894324853228962
tp1982
a(I117083
F0.13894324853228962
tp1983
a(I156343
F0.13881242626818718
tp1984
a(I198063
F0.13881242626818718
tp1985
a(I225706
F0.13719393703847649
tp1986
a(I241069
F0.13548613548613547
tp1987
a(I173342
F0.13460788138899726
tp1988
a(I79250
F0.13447927199191101
tp1989
a(I205592
F0.13392857142857142
tp1990
a(I79172
F0.13351393188854488
tp1991
a(I79954
F0.13351393188854488
tp1992
a(I129028
F0.13333333333333333
tp1993
a(I34827
F0.13085145595281975
tp1994
a(I155502
F0.12986086336068497
tp1995
a(I115439
F0.12931667891256429
tp1996
a(I183664
F0.12784966112138016
tp1997
a(I79249
F0.12782462057335581
tp1998
a(I27340
F0.12572533849129594
tp1999
a(I79260
F0.12411705348133199
tp2000
a(I135441
F0.12408759124087591
tp2001
a(I196257
F0.12363891815946611
tp2002
a(I225660
F0.12083333333333333
tp2003
a(I1211
F0.1204337899543379
tp2004
a(I246237
F0.12009879592466811
tp2005
a(I14179
F0.11703204047217539
tp2006
a(I145051
F0.11586121437422553
tp2007
a(I206053
F0.11365777080062794
tp2008
a(I2116
F0.11355081555834379
tp2009
a(I239065
F0.11253196930946291
tp2010
a(I136920
F0.11042654028436019
tp2011
a(I225665
F0.10769641902725816
tp2012
a(I204169
F0.10716820440028389
tp2013
a(I204690
F0.10716820440028389
tp2014
a(I95316
F0.1065977929091336
tp2015
a(I95335
F0.10642287857477731
tp2016
a(I203634
F0.10631777463460632
tp2017
a(I252279
F0.10609640831758034
tp2018
a(I177310
F0.10560171535781292
tp2019
a(I137428
F0.10553350455288349
tp2020
a(I137477
F0.10553350455288349
tp2021
a(I219539
F0.10510299625468165
tp2022
a(I137398
F0.10289017341040463
tp2023
a(I137447
F0.10289017341040463
tp2024
a(I158572
F0.10052333187963367
tp2025
a(I38522
F0.092774690038477978
tp2026
a(I30880
F0.092084006462035545
tp2027
a(I252278
F0.090515806988352751
tp2028
a(I223671
F0.089558398679323151
tp2029
a(I223685
F0.089558398679323151
tp2030
a(I223692
F0.089558398679323151
tp2031
a(I223700
F0.089558398679323151
tp2032
a(I223707
F0.089558398679323151
tp2033
a(I223678
F0.089539921600990308
tp2034
a(I196576
F0.089038461538461539
tp2035
a(I196584
F0.089038461538461539
tp2036
a(I196592
F0.089038461538461539
tp2037
a(I196615
F0.089038461538461539
tp2038
a(I196601
F0.088965915655690356
tp2039
a(I97597
F0.078696741854636598
tp2040
atp2041
a(I69504
(lp2042
(I69504
F1
tp2043
a(I69623
F0.684640522875817
tp2044
a(I94433
F0.684640522875817
tp2045
a(I110215
F0.6709470304975923
tp2046
a(I131789
F0.6709470304975923
tp2047
a(I28778
F0.66344605475040253
tp2048
a(I28854
F0.66344605475040253
tp2049
a(I28930
F0.66344605475040253
tp2050
a(I2154
F0.66134185303514381
tp2051
a(I81283
F0.66077170418006426
tp2052
a(I22974
F0.65500794912559623
tp2053
a(I94232
F0.65500794912559623
tp2054
a(I94199
F0.61419753086419748
tp2055
a(I56407
F0.56609642301710728
tp2056
a(I56482
F0.56609642301710728
tp2057
a(I56557
F0.56609642301710728
tp2058
a(I82394
F0.56379821958456977
tp2059
a(I4178
F0.55504587155963303
tp2060
a(I242282
F0.25229357798165136
tp2061
a(I69501
F0.20995532865347799
tp2062
a(I84216
F0.19135446685878962
tp2063
a(I153858
F0.19077809798270892
tp2064
a(I225664
F0.17175375064666321
tp2065
a(I183616
F0.16730584851390221
tp2066
a(I225373
F0.16473988439306358
tp2067
a(I223937
F0.16311399443929564
tp2068
a(I224866
F0.16311399443929564
tp2069
a(I141075
F0.16103286384976526
tp2070
a(I141441
F0.16103286384976526
tp2071
a(I224371
F0.16035120147874307
tp2072
a(I225964
F0.16035120147874307
tp2073
a(I69492
F0.159206275957545
tp2074
a(I27343
F0.15682895303748384
tp2075
a(I129033
F0.15471698113207547
tp2076
a(I183678
F0.15245009074410162
tp2077
a(I156343
F0.15006305170239598
tp2078
a(I198063
F0.15006305170239598
tp2079
a(I32642
F0.14870509607351712
tp2080
a(I117083
F0.14870509607351712
tp2081
a(I225706
F0.14771784232365145
tp2082
a(I225659
F0.14640638864241348
tp2083
a(I27340
F0.14305317324185249
tp2084
a(I205612
F0.14232053422370616
tp2085
a(I142452
F0.14201680672268907
tp2086
a(I47956
F0.14063811922753988
tp2087
a(I205464
F0.14051325199831721
tp2088
a(I205513
F0.14051325199831721
tp2089
a(I205558
F0.14051325199831721
tp2090
a(I205657
F0.14051325199831721
tp2091
a(I47901
F0.14022603599832567
tp2092
a(I47981
F0.14022603599832567
tp2093
a(I225660
F0.13756025213199852
tp2094
a(I79250
F0.13046544428772919
tp2095
a(I255833
F0.12855007473841554
tp2096
a(I255988
F0.12832840236686391
tp2097
a(I182516
F0.12826166850422638
tp2098
a(I79249
F0.12787814381863266
tp2099
a(I256190
F0.12751187431494337
tp2100
a(I256416
F0.12746530314097881
tp2101
a(I205592
F0.12697274031563846
tp2102
a(I241069
F0.12349287541103397
tp2103
a(I183664
F0.11532335138579165
tp2104
a(I225665
F0.11188616071428571
tp2105
a(I246237
F0.10976
tp2106
a(I206053
F0.10903732809430255
tp2107
a(I1211
F0.10895170789163722
tp2108
a(I2116
F0.10893032384690873
tp2109
a(I206057
F0.10491493383742911
tp2110
a(I2120
F0.10484886649874055
tp2111
a(I145051
F0.10462130937098844
tp2112
a(I239065
F0.10149603989439718
tp2113
a(I177310
F0.099556295063782579
tp2114
a(I252279
F0.097596504005826659
tp2115
a(I204169
F0.094166061486322922
tp2116
a(I204690
F0.094166061486322922
tp2117
a(I203634
F0.093342981186685964
tp2118
a(I95316
F0.093157262905162061
tp2119
a(I95335
F0.092739036664270302
tp2120
a(I219539
F0.092455089820359285
tp2121
a(I137428
F0.091885441527446307
tp2122
a(I137477
F0.091885441527446307
tp2123
a(I137398
F0.089834515366430265
tp2124
a(I137447
F0.089834515366430265
tp2125
a(I158572
F0.088176352705410826
tp2126
a(I136920
F0.086413826212193956
tp2127
a(I38522
F0.083114610673665795
tp2128
a(I30880
F0.082061855670103087
tp2129
a(I223671
F0.080168776371308023
tp2130
a(I223685
F0.080168776371308023
tp2131
a(I223692
F0.080168776371308023
tp2132
a(I223700
F0.080168776371308023
tp2133
a(I223707
F0.080168776371308023
tp2134
a(I223678
F0.08015186669479013
tp2135
a(I196601
F0.079355725790610884
tp2136
a(I196576
F0.07923122180819768
tp2137
a(I196584
F0.07923122180819768
tp2138
a(I196592
F0.07923122180819768
tp2139
a(I196615
F0.07923122180819768
tp2140
a(I252278
F0.075344769593003694
tp2141
a(I97597
F0.069838572642310956
tp2142
atp2143
a(I69505
(lp2144
(I69505
F1
tp2145
a(I69626
F1
tp2146
a(I94436
F0.77777777777777779
tp2147
a(I94438
F0.31578947368421051
tp2148
a(I69627
F0.13207547169811321
tp2149
a(I94437
F0.13207547169811321
tp2150
a(I69506
F0.12962962962962962
tp2151
a(I98545
F0.11320754716981132
tp2152
a(I137696
F0.11320754716981132
tp2153
a(I137711
F0.10714285714285714
tp2154
a(I98584
F0.10169491525423729
tp2155
a(I137738
F0.10169491525423729
tp2156
a(I4166
F0.092592592592592587
tp2157
a(I183739
F0.089552238805970144
tp2158
a(I137728
F0.070588235294117646
tp2159
a(I258951
F0.070588235294117646
tp2160
a(I170037
F0.064516129032258063
tp2161
a(I221663
F0.064516129032258063
tp2162
a(I221973
F0.064516129032258063
tp2163
a(I233593
F0.064516129032258063
tp2164
a(I161723
F0.063157894736842107
tp2165
a(I222066
F0.061855670103092786
tp2166
a(I221568
F0.061224489795918366
tp2167
a(I221802
F0.061224489795918366
tp2168
a(I221882
F0.061224489795918366
tp2169
a(I170003
F0.060606060606060608
tp2170
a(I222065
F0.039215686274509803
tp2171
a(I170002
F0.035714285714285712
tp2172
a(I5097
F0.033333333333333333
tp2173
a(I4159
F0.032894736842105261
tp2174
a(I5594
F0.032467532467532464
tp2175
a(I1240
F0.03048780487804878
tp2176
a(I1320
F0.03048780487804878
tp2177
a(I1401
F0.03048780487804878
tp2178
a(I3961
F0.029069767441860465
tp2179
a(I3996
F0.028901734104046242
tp2180
a(I7555
F0.028901734104046242
tp2181
a(I204951
F0.027272727272727271
tp2182
a(I204968
F0.027272727272727271
tp2183
a(I204985
F0.027272727272727271
tp2184
a(I231104
F0.027272727272727271
tp2185
a(I231122
F0.027272727272727271
tp2186
a(I231140
F0.027272727272727271
tp2187
a(I242056
F0.027272727272727271
tp2188
a(I258954
F0.027149321266968326
tp2189
a(I7011
F0.02032520325203252
tp2190
a(I57110
F0.020134228187919462
tp2191
a(I105847
F0.020134228187919462
tp2192
a(I69662
F0.019292604501607719
tp2193
a(I94473
F0.019292604501607719
tp2194
a(I42646
F0.018691588785046728
tp2195
a(I29927
F0.018633540372670808
tp2196
a(I30040
F0.018633540372670808
tp2197
a(I42655
F0.018633540372670808
tp2198
a(I42666
F0.018633540372670808
tp2199
a(I42677
F0.018633540372670808
tp2200
a(I142231
F0.0169971671388102
tp2201
a(I252158
F0.0169971671388102
tp2202
a(I252428
F0.0169971671388102
tp2203
a(I253732
F0.0169971671388102
tp2204
a(I253973
F0.0169971671388102
tp2205
a(I4172
F0.014409221902017291
tp2206
a(I1238
F0.01098901098901099
tp2207
a(I1318
F0.01098901098901099
tp2208
a(I1399
F0.01098901098901099
tp2209
a(I253198
F0.0099833610648918467
tp2210
a(I69517
F0.0096153846153846159
tp2211
a(I11945
F0.0096153846153846159
tp2212
a(I12015
F0.0096153846153846159
tp2213
a(I12085
F0.0096153846153846159
tp2214
a(I12392
F0.0067643742953776773
tp2215
a(I12635
F0.0067643742953776773
tp2216
a(I22894
F0.0067567567567567571
tp2217
a(I14188
F0.0061983471074380167
tp2218
a(I69202
F0.0046439628482972135
tp2219
a(I11909
F0.004633204633204633
tp2220
a(I210332
F0.004464285714285714
tp2221
a(I156759
F0.0042979942693409743
tp2222
a(I101592
F0.004160887656033287
tp2223
a(I126875
F0.0041237113402061857
tp2224
a(I112501
F0.0041180507892930682
tp2225
a(I135666
F0.0041180507892930682
tp2226
a(I13000
F0.0040268456375838931
tp2227
a(I258503
F0.0040241448692152921
tp2228
a(I157261
F0.0035046728971962616
tp2229
a(I3511
F0.0031036623215394167
tp2230
a(I83886
F0.0020746887966804979
tp2231
a(I1211
F0.0018999366687777073
tp2232
a(I225665
F0.0017767249037607344
tp2233
a(I204169
F0.0015337423312883436
tp2234
a(I204690
F0.0015337423312883436
tp2235
a(I203634
F0.0015286624203821656
tp2236
a(I95316
F0.001520912547528517
tp2237
a(I95335
F0.0015182186234817814
tp2238
a(I219539
F0.0015178345560333923
tp2239
a(I137428
F0.0015124779430299975
tp2240
a(I137477
F0.0015124779430299975
tp2241
a(I137398
F0.0014992503748125937
tp2242
a(I137447
F0.0014992503748125937
tp2243
a(I252278
F0.0010369858278603526
tp2244
atp2245
a(I69506
(lp2246
(I69506
F1
tp2247
a(I69627
F0.98113207547169812
tp2248
a(I98545
F0.96226415094339623
tp2249
a(I137696
F0.96226415094339623
tp2250
a(I94437
F0.94444444444444442
tp2251
a(I17678
F0.8571428571428571
tp2252
a(I17691
F0.8571428571428571
tp2253
a(I17704
F0.8571428571428571
tp2254
a(I17717
F0.8571428571428571
tp2255
a(I31534
F0.8392857142857143
tp2256
a(I31568
F0.8392857142857143
tp2257
a(I31602
F0.8392857142857143
tp2258
a(I94516
F0.82456140350877194
tp2259
a(I22049
F0.81034482758620685
tp2260
a(I24069
F0.81034482758620685
tp2261
a(I134106
F0.81034482758620685
tp2262
a(I3950
F0.80701754385964908
tp2263
a(I3985
F0.80701754385964908
tp2264
a(I59610
F0.80701754385964908
tp2265
a(I23385
F0.79661016949152541
tp2266
a(I23820
F0.79661016949152541
tp2267
a(I27181
F0.79661016949152541
tp2268
a(I27190
F0.79661016949152541
tp2269
a(I27222
F0.79661016949152541
tp2270
a(I27254
F0.79661016949152541
tp2271
a(I69496
F0.79661016949152541
tp2272
a(I2139
F0.7931034482758621
tp2273
a(I29937
F0.7931034482758621
tp2274
a(I69577
F0.77966101694915257
tp2275
a(I195264
F0.77049180327868849
tp2276
a(I195290
F0.77049180327868849
tp2277
a(I28708
F0.76666666666666672
tp2278
a(I28784
F0.76666666666666672
tp2279
a(I28860
F0.76666666666666672
tp2280
a(I29960
F0.76666666666666672
tp2281
a(I29979
F0.76666666666666672
tp2282
a(I30004
F0.76666666666666672
tp2283
a(I30050
F0.76666666666666672
tp2284
a(I30075
F0.76666666666666672
tp2285
a(I61139
F0.70769230769230773
tp2286
a(I258951
F0.58139534883720934
tp2287
a(I69364
F0.50515463917525771
tp2288
a(I69266
F0.47572815533980584
tp2289
a(I69275
F0.47572815533980584
tp2290
a(I69355
F0.47572815533980584
tp2291
a(I92643
F0.46666666666666667
tp2292
a(I92754
F0.46666666666666667
tp2293
a(I92865
F0.46666666666666667
tp2294
a(I42643
F0.45192307692307693
tp2295
a(I42652
F0.45192307692307693
tp2296
a(I42663
F0.45192307692307693
tp2297
a(I42674
F0.45192307692307693
tp2298
a(I57107
F0.44339622641509435
tp2299
a(I105844
F0.44339622641509435
tp2300
a(I42063
F0.43809523809523809
tp2301
a(I42071
F0.43809523809523809
tp2302
a(I42079
F0.43809523809523809
tp2303
a(I42087
F0.43809523809523809
tp2304
a(I227865
F0.43636363636363634
tp2305
a(I32546
F0.43396226415094341
tp2306
a(I28937
F0.42990654205607476
tp2307
a(I32555
F0.38333333333333336
tp2308
a(I60538
F0.38016528925619836
tp2309
a(I51210
F0.37096774193548387
tp2310
a(I51219
F0.37096774193548387
tp2311
a(I51228
F0.37096774193548387
tp2312
a(I82735
F0.36507936507936506
tp2313
a(I32534
F0.36220472440944884
tp2314
a(I32566
F0.36220472440944884
tp2315
a(I227480
F0.33566433566433568
tp2316
a(I60172
F0.25
tp2317
a(I60193
F0.24607329842931938
tp2318
a(I60152
F0.24102564102564103
tp2319
a(I60212
F0.24102564102564103
tp2320
a(I13748
F0.21304347826086956
tp2321
a(I13377
F0.21212121212121213
tp2322
a(I13568
F0.21120689655172414
tp2323
a(I13942
F0.21120689655172414
tp2324
a(I14134
F0.21120689655172414
tp2325
a(I92310
F0.20512820512820512
tp2326
a(I252683
F0.17910447761194029
tp2327
a(I252921
F0.17910447761194029
tp2328
a(I253486
F0.17910447761194029
tp2329
a(I206471
F0.17870722433460076
tp2330
a(I206552
F0.17472118959107807
tp2331
a(I92881
F0.054505005561735265
tp2332
a(I14188
F0.05159958720330237
tp2333
a(I225665
F0.013901212658976633
tp2334
a(I95316
F0.012671059300557527
tp2335
a(I204169
F0.012519161982626469
tp2336
a(I204690
F0.012519161982626469
tp2337
a(I95335
F0.012392513909964592
tp2338
a(I137428
F0.012345679012345678
tp2339
a(I137477
F0.012345679012345678
tp2340
a(I203634
F0.012219959266802444
tp2341
a(I219539
F0.012133468149646108
tp2342
a(I137398
F0.011985018726591761
tp2343
a(I137447
F0.011985018726591761
tp2344
a(I252278
F0.0084657912923289565
tp2345
a(I97597
F0.0084343700579862946
tp2346
atp2347
a(I69507
(lp2348
(I69507
F1
tp2349
a(I69628
F1
tp2350
a(I94439
F1
tp2351
a(I56337
F0.94117647058823528
tp2352
a(I56412
F0.94117647058823528
tp2353
a(I56487
F0.94117647058823528
tp2354
a(I34502
F0.83783783783783783
tp2355
a(I34519
F0.83783783783783783
tp2356
a(I34536
F0.83783783783783783
tp2357
a(I94519
F0.23863636363636365
tp2358
a(I94604
F0.23863636363636365
tp2359
a(I94685
F0.23863636363636365
tp2360
a(I94766
F0.23863636363636365
tp2361
a(I69515
F0.18181818181818182
tp2362
a(I69639
F0.1360544217687075
tp2363
a(I94450
F0.1360544217687075
tp2364
a(I4159
F0.13043478260869565
tp2365
a(I34507
F0.12837837837837837
tp2366
a(I34524
F0.12837837837837837
tp2367
a(I34541
F0.12837837837837837
tp2368
a(I56346
F0.12837837837837837
tp2369
a(I56421
F0.12837837837837837
tp2370
a(I56496
F0.12837837837837837
tp2371
a(I13036
F0.125
tp2372
a(I13028
F0.12418300653594772
tp2373
a(I13032
F0.11864406779661017
tp2374
a(I134108
F0.109375
tp2375
a(I110120
F0.10894941634241245
tp2376
a(I142231
F0.063711911357340723
tp2377
a(I253732
F0.063711911357340723
tp2378
a(I112672
F0.0625
tp2379
a(I4172
F0.058988764044943819
tp2380
a(I252158
F0.057851239669421489
tp2381
a(I252428
F0.057851239669421489
tp2382
a(I253973
F0.057851239669421489
tp2383
a(I253198
F0.039473684210526314
tp2384
a(I138513
F0.027662517289073305
tp2385
a(I69521
F0.021990740740740741
tp2386
a(I215039
F0.021409455842997322
tp2387
a(I14188
F0.019387755102040816
tp2388
a(I69501
F0.016962220508866616
tp2389
a(I156343
F0.012189404594467886
tp2390
a(I198063
F0.012189404594467886
tp2391
a(I32642
F0.012109920819748486
tp2392
a(I117083
F0.012109920819748486
tp2393
a(I3511
F0.011713933415536375
tp2394
a(I209494
F0.010775862068965518
tp2395
a(I69492
F0.010443864229765013
tp2396
a(I205464
F0.0099384761003312831
tp2397
a(I205513
F0.0099384761003312831
tp2398
a(I205558
F0.0099384761003312831
tp2399
a(I205657
F0.0099384761003312831
tp2400
a(I47956
F0.0099103350637092975
tp2401
a(I142452
F0.0099056603773584901
tp2402
a(I47901
F0.0098777046095954845
tp2403
a(I47981
F0.0098777046095954845
tp2404
a(I205612
F0.0098176718092566617
tp2405
a(I47934
F0.0097636176772867428
tp2406
a(I27343
F0.0095785440613026813
tp2407
a(I27340
F0.0095272993770611943
tp2408
a(I155787
F0.0092336103416435829
tp2409
a(I205592
F0.0082547169811320754
tp2410
a(I34827
F0.0082179930795847744
tp2411
a(I79260
F0.0077369439071566732
tp2412
a(I79249
F0.0073415765069551773
tp2413
a(I145051
F0.0070298769771528994
tp2414
a(I239065
F0.0069708491761723704
tp2415
a(I246237
F0.006966213862765587
tp2416
a(I1211
F0.0069466371960846228
tp2417
a(I2114
F0.0066830812521983824
tp2418
a(I177310
F0.0059382422802850355
tp2419
a(I225665
F0.0059031877213695395
tp2420
a(I204169
F0.0056108135679673555
tp2421
a(I204690
F0.0056108135679673555
tp2422
a(I203634
F0.0055922724961870868
tp2423
a(I95316
F0.0055639858371269602
tp2424
a(I95335
F0.0055541529916687702
tp2425
a(I219539
F0.005552751135790005
tp2426
a(I137428
F0.005533199195171026
tp2427
a(I137477
F0.005533199195171026
tp2428
a(I137398
F0.0054849164796808778
tp2429
a(I137447
F0.0054849164796808778
tp2430
a(I252279
F0.0053530461381595716
tp2431
a(I136920
F0.0053462321792260691
tp2432
a(I38522
F0.0050539857569492303
tp2433
a(I158572
F0.0048962462112380504
tp2434
a(I223671
F0.0048661800486618006
tp2435
a(I223685
F0.0048661800486618006
tp2436
a(I223692
F0.0048661800486618006
tp2437
a(I223700
F0.0048661800486618006
tp2438
a(I223707
F0.0048661800486618006
tp2439
a(I223678
F0.0048651039363113669
tp2440
a(I30880
F0.0047322004732200471
tp2441
a(I252278
F0.0046632124352331602
tp2442
a(I196601
F0.0044934640522875813
tp2443
a(I196576
F0.004486133768352365
tp2444
a(I196584
F0.004486133768352365
tp2445
a(I196592
F0.004486133768352365
tp2446
a(I196615
F0.004486133768352365
tp2447
a(I97597
F0.0038616815868000704
tp2448
atp2449
a(I69508
(lp2450
(I69508
F1
tp2451
a(I69629
F1
tp2452
a(I94440
F1
tp2453
a(I98547
F0.84999999999999998
tp2454
a(I137698
F0.59999999999999998
tp2455
a(I69516
F0.36956521739130432
tp2456
a(I28710
F0.26341463414634148
tp2457
a(I28786
F0.26341463414634148
tp2458
a(I28862
F0.26341463414634148
tp2459
a(I94518
F0.21610169491525424
tp2460
a(I94603
F0.21161825726141079
tp2461
a(I94684
F0.21161825726141079
tp2462
a(I94765
F0.21161825726141079
tp2463
a(I59611
F0.2102803738317757
tp2464
a(I56277
F0.20987654320987653
tp2465
a(I4160
F0.18454935622317598
tp2466
a(I134108
F0.17424242424242425
tp2467
a(I110120
F0.17358490566037735
tp2468
a(I56339
F0.17338709677419356
tp2469
a(I56414
F0.17338709677419356
tp2470
a(I56489
F0.17338709677419356
tp2471
a(I221516
F0.16800000000000001
tp2472
a(I221750
F0.16800000000000001
tp2473
a(I221830
F0.16800000000000001
tp2474
a(I221597
F0.13802083333333334
tp2475
a(I169966
F0.13589743589743589
tp2476
a(I195271
F0.11627906976744186
tp2477
a(I195297
F0.11627906976744186
tp2478
a(I221916
F0.11369509043927649
tp2479
a(I112672
F0.10810810810810811
tp2480
a(I195279
F0.044150110375275942
tp2481
a(I103182
F0.028522039757994815
tp2482
a(I170503
F0.028497409326424871
tp2483
a(I92388
F0.026037428803905614
tp2484
a(I92935
F0.026037428803905614
tp2485
a(I163665
F0.025785656728444802
tp2486
a(I96279
F0.022883295194508008
tp2487
a(I153858
F0.022267206477732792
tp2488
a(I84216
F0.022252191503708697
tp2489
a(I144271
F0.021367521367521368
tp2490
a(I183616
F0.020585048754062838
tp2491
a(I27343
F0.019589106545628284
tp2492
a(I79505
F0.01956135151155898
tp2493
a(I79667
F0.019230769230769232
tp2494
a(I3511
F0.018948655256723717
tp2495
a(I79064
F0.018181818181818181
tp2496
a(I79846
F0.018181818181818181
tp2497
a(I79247
F0.017462165308498253
tp2498
a(I156343
F0.017225325884543761
tp2499
a(I198063
F0.017225325884543761
tp2500
a(I32642
F0.017113783533765033
tp2501
a(I117083
F0.017113783533765033
tp2502
a(I145248
F0.016816143497757848
tp2503
a(I227156
F0.016264428121720881
tp2504
a(I209494
F0.016025641025641024
tp2505
a(I165590
F0.015982951518380393
tp2506
a(I83570
F0.015656565656565657
tp2507
a(I224371
F0.015544041450777202
tp2508
a(I225964
F0.015544041450777202
tp2509
a(I225706
F0.014658726523133303
tp2510
a(I27340
F0.014593214155417731
tp2511
a(I225660
F0.014510278113663845
tp2512
a(I155787
F0.014213663457129757
tp2513
a(I155502
F0.01361947998349154
tp2514
a(I162383
F0.011808118081180811
tp2515
a(I79250
F0.011428571428571429
tp2516
a(I206053
F0.011051693404634581
tp2517
a(I2116
F0.011039886039886039
tp2518
a(I145051
F0.010839160839160839
tp2519
a(I246237
F0.010741510741510741
tp2520
a(I183664
F0.010273972602739725
tp2521
a(I204169
F0.010180707559175363
tp2522
a(I204690
F0.010180707559175363
tp2523
a(I203634
F0.010147133434804667
tp2524
a(I95316
F0.010095911155981827
tp2525
a(I95335
F0.010078105316200554
tp2526
a(I219539
F0.010075566750629723
tp2527
a(I137428
F0.010040160642570281
tp2528
a(I137477
F0.010040160642570281
tp2529
a(I137398
F0.0099527245583478485
tp2530
a(I137447
F0.0099527245583478485
tp2531
a(I177310
F0.0091634643807271647
tp2532
a(I158572
F0.0081376424087421535
tp2533
a(I252279
F0.0078700177710078704
tp2534
a(I136920
F0.0076045627376425855
tp2535
a(I38522
F0.0073243305104142824
tp2536
a(I30880
F0.0072914432768603904
tp2537
a(I223671
F0.0072751322751322747
tp2538
a(I223685
F0.0072751322751322747
tp2539
a(I223692
F0.0072751322751322747
tp2540
a(I223700
F0.0072751322751322747
tp2541
a(I223707
F0.0072751322751322747
tp2542
a(I223678
F0.0072735287635001099
tp2543
a(I252278
F0.007066528783178214
tp2544
a(I196601
F0.0069246435845213847
tp2545
a(I196576
F0.0069133794225294835
tp2546
a(I196584
F0.0069133794225294835
tp2547
a(I196592
F0.0069133794225294835
tp2548
a(I196615
F0.0069133794225294835
tp2549
a(I97597
F0.0068349106203995794
tp2550
atp2551
a(I69509
(lp2552
(I69509
F1
tp2553
a(I69630
F1
tp2554
a(I94441
F1
tp2555
a(I98548
F0.80000000000000004
tp2556
a(I137699
F0.77840909090909094
tp2557
a(I134108
F0.44912280701754387
tp2558
a(I110120
F0.44755244755244755
tp2559
a(I56339
F0.42753623188405798
tp2560
a(I56414
F0.42753623188405798
tp2561
a(I56489
F0.42753623188405798
tp2562
a(I28710
F0.42519685039370081
tp2563
a(I28786
F0.42519685039370081
tp2564
a(I28862
F0.42519685039370081
tp2565
a(I59611
F0.42519685039370081
tp2566
a(I94518
F0.39285714285714285
tp2567
a(I94603
F0.39084507042253519
tp2568
a(I94684
F0.39084507042253519
tp2569
a(I94765
F0.39084507042253519
tp2570
a(I4160
F0.33922261484098942
tp2571
a(I56277
F0.33670033670033672
tp2572
a(I221516
F0.32996632996632996
tp2573
a(I221750
F0.32996632996632996
tp2574
a(I221830
F0.32996632996632996
tp2575
a(I195271
F0.30213903743315507
tp2576
a(I195297
F0.30213903743315507
tp2577
a(I221916
F0.26540284360189575
tp2578
a(I112672
F0.26484018264840181
tp2579
a(I221597
F0.26463700234192039
tp2580
a(I169966
F0.26096997690531176
tp2581
a(I69517
F0.18850267379679145
tp2582
a(I195279
F0.11240721102863202
tp2583
a(I215039
F0.059019118869492931
tp2584
a(I79248
F0.049279757391963608
tp2585
a(I183616
F0.040859088528025146
tp2586
a(I153858
F0.040514469453376209
tp2587
a(I84216
F0.040488431876606681
tp2588
a(I225661
F0.037037037037037035
tp2589
a(I250142
F0.03666469544648137
tp2590
a(I27343
F0.036127836961556276
tp2591
a(I34825
F0.033333333333333333
tp2592
a(I183678
F0.031558185404339252
tp2593
a(I32642
F0.03090013434841021
tp2594
a(I117083
F0.03090013434841021
tp2595
a(I191061
F0.030724915986557848
tp2596
a(I156343
F0.03063063063063063
tp2597
a(I198063
F0.03063063063063063
tp2598
a(I2123
F0.029144768275203056
tp2599
a(I162383
F0.028561099060014462
tp2600
a(I155787
F0.027518863737239236
tp2601
a(I225706
F0.027482269503546101
tp2602
a(I27340
F0.027431421446384038
tp2603
a(I255833
F0.025927403270841642
tp2604
a(I255988
F0.02520677432059866
tp2605
a(I183664
F0.025184687709872398
tp2606
a(I205592
F0.025114155251141551
tp2607
a(I182516
F0.025019546520719312
tp2608
a(I79250
F0.02489780750650316
tp2609
a(I256190
F0.024864024864024864
tp2610
a(I256416
F0.024854368932038837
tp2611
a(I225660
F0.024237685691946835
tp2612
a(I206051
F0.023997257456290711
tp2613
a(I2114
F0.023964395754878465
tp2614
a(I204169
F0.023887352275584611
tp2615
a(I204690
F0.023887352275584611
tp2616
a(I177310
F0.023871906841339156
tp2617
a(I137428
F0.023815430414289258
tp2618
a(I137477
F0.023815430414289258
tp2619
a(I203634
F0.023809523809523808
tp2620
a(I95316
F0.02369077306733167
tp2621
a(I95335
F0.023649489668907144
tp2622
a(I219539
F0.023643603782976606
tp2623
a(I79260
F0.023203592814371257
tp2624
a(I83886
F0.023131076097888031
tp2625
a(I137398
F0.023107177974434612
tp2626
a(I137447
F0.023107177974434612
tp2627
a(I158572
F0.023046784973496198
tp2628
a(I145051
F0.022540983606557378
tp2629
a(I246237
F0.022342586323628979
tp2630
a(I2120
F0.022036727879799666
tp2631
a(I206057
F0.021368948247078464
tp2632
a(I239065
F0.020679012345679013
tp2633
a(I225665
F0.019896193771626297
tp2634
a(I136920
F0.019754938734683671
tp2635
a(I30880
F0.019108280254777069
tp2636
a(I1211
F0.019041769041769043
tp2637
a(I252279
F0.018504626156539136
tp2638
a(I196601
F0.018156142828323583
tp2639
a(I196576
F0.01812688821752266
tp2640
a(I196584
F0.01812688821752266
tp2641
a(I196592
F0.01812688821752266
tp2642
a(I196615
F0.01812688821752266
tp2643
a(I252278
F0.016757865937072503
tp2644
a(I38522
F0.016704288939051917
tp2645
a(I223671
F0.016536118363794605
tp2646
a(I223685
F0.016536118363794605
tp2647
a(I223692
F0.016536118363794605
tp2648
a(I223700
F0.016536118363794605
tp2649
a(I223707
F0.016536118363794605
tp2650
a(I223678
F0.016532521209484445
tp2651
a(I97597
F0.015101544870682174
tp2652
atp2653
a(I69510
(lp2654
(I69510
F1
tp2655
a(I69631
F1
tp2656
a(I94442
F1
tp2657
a(I98552
F0.5
tp2658
a(I137701
F0.5
tp2659
a(I69518
F0.25757575757575757
tp2660
a(I4160
F0.05829596412556054
tp2661
a(I56339
F0.054621848739495799
tp2662
a(I56414
F0.054621848739495799
tp2663
a(I56489
F0.054621848739495799
tp2664
a(I56277
F0.053941908713692949
tp2665
a(I112672
F0.03787878787878788
tp2666
a(I59656
F0.011711711711711712
tp2667
a(I92388
F0.0115990057995029
tp2668
a(I92935
F0.0115990057995029
tp2669
a(I142178
F0.011541632316570486
tp2670
a(I69689
F0.011363636363636364
tp2671
a(I94500
F0.011363636363636364
tp2672
a(I110199
F0.011363636363636364
tp2673
a(I131793
F0.011363636363636364
tp2674
a(I134186
F0.011353711790393014
tp2675
a(I82400
F0.011092150170648464
tp2676
a(I30509
F0.011090573012939002
tp2677
a(I213749
F0.011063829787234043
tp2678
a(I157792
F0.011054421768707483
tp2679
a(I30565
F0.011039558417663294
tp2680
a(I30636
F0.011039558417663294
tp2681
a(I134772
F0.010997643362136685
tp2682
a(I110773
F0.010833333333333334
tp2683
a(I241954
F0.010743801652892562
tp2684
a(I242141
F0.010743801652892562
tp2685
a(I242359
F0.010734929810074319
tp2686
a(I15358
F0.0106951871657754
tp2687
a(I16720
F0.0106951871657754
tp2688
a(I243743
F0.010551948051948052
tp2689
a(I162277
F0.010458567980691875
tp2690
a(I199858
F0.010342084327764518
tp2691
a(I44154
F0.010309278350515464
tp2692
a(I30415
F0.010212097407698351
tp2693
a(I30715
F0.010212097407698351
tp2694
a(I38760
F0.0099312452253628725
tp2695
a(I90585
F0.0098039215686274508
tp2696
a(I14881
F0.0098039215686274508
tp2697
a(I16243
F0.0098039215686274508
tp2698
a(I2844
F0.0091356289529163741
tp2699
a(I191062
F0.0089163237311385458
tp2700
a(I213753
F0.0086608927381745509
tp2701
a(I237031
F0.0080695220360024831
tp2702
a(I13000
F0.0080267558528428085
tp2703
a(I157261
F0.007575757575757576
tp2704
a(I191061
F0.0075414781297134239
tp2705
a(I14475
F0.007481296758104738
tp2706
a(I137249
F0.0074031890660592259
tp2707
a(I206060
F0.0070245860511791271
tp2708
a(I2123
F0.0070105157736604909
tp2709
a(I156343
F0.0065696855936180198
tp2710
a(I198063
F0.0065696855936180198
tp2711
a(I32642
F0.0065268065268065268
tp2712
a(I117083
F0.0065268065268065268
tp2713
a(I34825
F0.0064516129032258064
tp2714
a(I19395
F0.0061287027579162408
tp2715
a(I155787
F0.0060213061602593793
tp2716
a(I2119
F0.0058422590068159686
tp2717
a(I144669
F0.0056694286960313998
tp2718
a(I115439
F0.0056277056277056281
tp2719
a(I2124
F0.0056048575432041106
tp2720
a(I14179
F0.0051020408163265302
tp2721
a(I79260
F0.0050426687354538403
tp2722
a(I79250
F0.0049961568024596463
tp2723
a(I206051
F0.0049469964664310955
tp2724
a(I2114
F0.0049400141143260412
tp2725
a(I27340
F0.0047653958944281526
tp2726
a(I146160
F0.0047186932849364793
tp2727
a(I206053
F0.0046712181099532882
tp2728
a(I2116
F0.0046661880832735104
tp2729
a(I145051
F0.0045806906272022555
tp2730
a(I183664
F0.0044874007594062825
tp2731
a(I2120
F0.0041293874741913286
tp2732
a(I239065
F0.0041256743890828312
tp2733
a(I177310
F0.003867896459387087
tp2734
a(I204169
F0.0038323965252938172
tp2735
a(I204690
F0.0038323965252938172
tp2736
a(I203634
F0.0038197097020626434
tp2737
a(I95316
F0.0038003546997719788
tp2738
a(I95335
F0.0037936267071320183
tp2739
a(I219539
F0.0037926675094816687
tp2740
a(I137428
F0.003779289493575208
tp2741
a(I137477
F0.003779289493575208
tp2742
a(I137398
F0.0037462537462537465
tp2743
a(I137447
F0.0037462537462537465
tp2744
a(I158572
F0.0030352556619192153
tp2745
a(I38522
F0.0029898804047838088
tp2746
a(I30880
F0.0027993109388458224
tp2747
a(I196601
F0.00265794316090779
tp2748
a(I196576
F0.0026536027760767503
tp2749
a(I196584
F0.0026536027760767503
tp2750
a(I196592
F0.0026536027760767503
tp2751
a(I196615
F0.0026536027760767503
tp2752
a(I97597
F0.0024600246002460025
tp2753
a(I252278
F0.0022452504317789293
tp2754
atp2755
a(I69511
(lp2756
(I69511
F1
tp2757
a(I69632
F0.96470588235294119
tp2758
a(I94443
F0.96470588235294119
tp2759
a(I110121
F0.46363636363636362
tp2760
a(I134109
F0.34074074074074073
tp2761
a(I8886
F0.093240093240093247
tp2762
a(I69519
F0.088681446907817971
tp2763
a(I124010
F0.049673202614379082
tp2764
a(I138529
F0.049673202614379082
tp2765
a(I52991
F0.048223350253807105
tp2766
a(I242282
F0.041198501872659173
tp2767
a(I14188
F0.037549407114624504
tp2768
a(I103182
F0.032285471537807989
tp2769
a(I170503
F0.032258064516129031
tp2770
a(I206052
F0.031611410948342328
tp2771
a(I2115
F0.031441717791411042
tp2772
a(I183549
F0.029169783096484669
tp2773
a(I84163
F0.029104477611940297
tp2774
a(I153807
F0.029104477611940297
tp2775
a(I99687
F0.028169014084507043
tp2776
a(I111916
F0.027857142857142858
tp2777
a(I168240
F0.027817403708987162
tp2778
a(I231210
F0.027817403708987162
tp2779
a(I163486
F0.027797576621525304
tp2780
a(I134836
F0.027496382054992764
tp2781
a(I153858
F0.026666666666666668
tp2782
a(I84216
F0.026648900732844771
tp2783
a(I12478
F0.025152957171991841
tp2784
a(I12399
F0.025000000000000001
tp2785
a(I12560
F0.025000000000000001
tp2786
a(I12642
F0.025000000000000001
tp2787
a(I22901
F0.02488231338264963
tp2788
a(I32642
F0.023941068139963169
tp2789
a(I117083
F0.023941068139963169
tp2790
a(I156343
F0.023622047244094488
tp2791
a(I198063
F0.023622047244094488
tp2792
a(I241066
F0.022935779816513763
tp2793
a(I183616
F0.022495982860203535
tp2794
a(I209494
F0.021739130434782608
tp2795
a(I223937
F0.020576131687242798
tp2796
a(I224866
F0.020576131687242798
tp2797
a(I126355
F0.020529443544030253
tp2798
a(I27343
F0.020321361058601134
tp2799
a(I169204
F0.020061728395061727
tp2800
a(I173652
F0.019558676028084254
tp2801
a(I155787
F0.019134396355353075
tp2802
a(I19395
F0.019028542814221332
tp2803
a(I129028
F0.018978761861726163
tp2804
a(I2123
F0.018146150073565473
tp2805
a(I34827
F0.017948717948717947
tp2806
a(I2124
F0.017898118402937126
tp2807
a(I173342
F0.017865322950068714
tp2808
a(I27340
F0.017035157665820949
tp2809
a(I115439
F0.016602809706257982
tp2810
a(I79250
F0.016306408797876374
tp2811
a(I246237
F0.016234887737478412
tp2812
a(I239065
F0.016047828823159218
tp2813
a(I205592
F0.015922330097087378
tp2814
a(I79249
F0.015278838808250574
tp2815
a(I225660
F0.015175718849840255
tp2816
a(I145051
F0.014966933518969718
tp2817
a(I146160
F0.014321518080916577
tp2818
a(I206053
F0.014179369018078695
tp2819
a(I2116
F0.014164305949008499
tp2820
a(I183664
F0.013974096796182686
tp2821
a(I206057
F0.013945578231292517
tp2822
a(I2120
F0.013936097892590074
tp2823
a(I206051
F0.013588850174216028
tp2824
a(I2114
F0.013569937369519834
tp2825
a(I204169
F0.013448363359553413
tp2826
a(I204690
F0.013448363359553413
tp2827
a(I203634
F0.013404147698533131
tp2828
a(I137398
F0.013399503722084368
tp2829
a(I137447
F0.013399503722084368
tp2830
a(I95316
F0.013336688475088072
tp2831
a(I95335
F0.013313237879929666
tp2832
a(I219539
F0.013309894525364139
tp2833
a(I137428
F0.013263263263263263
tp2834
a(I137477
F0.013263263263263263
tp2835
a(I1211
F0.012500000000000001
tp2836
a(I225665
F0.012291483757682178
tp2837
a(I177310
F0.011470588235294118
tp2838
a(I252279
F0.010369246332827516
tp2839
a(I136920
F0.01035615054306643
tp2840
a(I158572
F0.010192263145703035
tp2841
a(I38522
F0.0098106319872233623
tp2842
a(I223671
F0.0094484728631070089
tp2843
a(I223685
F0.0094484728631070089
tp2844
a(I223692
F0.0094484728631070089
tp2845
a(I223700
F0.0094484728631070089
tp2846
a(I223707
F0.0094484728631070089
tp2847
a(I223678
F0.0094463971880492086
tp2848
a(I30880
F0.00940572894399316
tp2849
a(I97597
F0.0090940888422525352
tp2850
a(I196601
F0.0089340101522842642
tp2851
a(I196576
F0.0089195215892965748
tp2852
a(I196584
F0.0089195215892965748
tp2853
a(I196592
F0.0089195215892965748
tp2854
a(I196615
F0.0089195215892965748
tp2855
a(I252278
F0.0082474226804123713
tp2856
atp2857
a(I69512
(lp2858
(I69512
F1
tp2859
a(I69633
F1
tp2860
a(I94444
F1
tp2861
a(I131743
F0.52173913043478259
tp2862
a(I110121
F0.11764705882352941
tp2863
a(I134109
F0.095238095238095233
tp2864
a(I92231
F0.038022813688212927
tp2865
a(I169970
F0.033222591362126248
tp2866
a(I183667
F0.016313213703099509
tp2867
a(I69520
F0.01391304347826087
tp2868
a(I206527
F0.011198208286674132
tp2869
a(I206609
F0.011198208286674132
tp2870
a(I154787
F0.011185682326621925
tp2871
a(I82400
F0.010238907849829351
tp2872
a(I59656
F0.0099009900990099011
tp2873
a(I69689
F0.0096069868995633193
tp2874
a(I94500
F0.0096069868995633193
tp2875
a(I110199
F0.0096069868995633193
tp2876
a(I131793
F0.0096069868995633193
tp2877
a(I134186
F0.0095986038394415361
tp2878
a(I30509
F0.0092336103416435829
tp2879
a(I30565
F0.0091911764705882356
tp2880
a(I30636
F0.0091911764705882356
tp2881
a(I92388
F0.0090984284532671638
tp2882
a(I92935
F0.0090984284532671638
tp2883
a(I174755
F0.0088424437299035371
tp2884
a(I52002
F0.0086880973066898355
tp2885
a(I125922
F0.0086805555555555559
tp2886
a(I127056
F0.0086655112651646445
tp2887
a(I52072
F0.0086355785837651123
tp2888
a(I52157
F0.0086355785837651123
tp2889
a(I51719
F0.0085763293310463125
tp2890
a(I51808
F0.0085763293310463125
tp2891
a(I189203
F0.0083263946711074101
tp2892
a(I51894
F0.0083194675540765387
tp2893
a(I52244
F0.0083194675540765387
tp2894
a(I189137
F0.0083125519534497094
tp2895
a(I189266
F0.0083125519534497094
tp2896
a(I189332
F0.0080645161290322578
tp2897
a(I186660
F0.0080375083724045539
tp2898
a(I178821
F0.0079872204472843447
tp2899
a(I179551
F0.0079872204472843447
tp2900
a(I180280
F0.0079872204472843447
tp2901
a(I181009
F0.0079872204472843447
tp2902
a(I186548
F0.0078226857887874843
tp2903
a(I186797
F0.0078226857887874843
tp2904
a(I186710
F0.0075614366729678641
tp2905
a(I200468
F0.0075131480090157776
tp2906
a(I186862
F0.0072655217965653896
tp2907
a(I186501
F0.0072320841551610782
tp2908
a(I186613
F0.0072320841551610782
tp2909
a(I134578
F0.0071942446043165471
tp2910
a(I200375
F0.0071059431524547806
tp2911
a(I15265
F0.0070332480818414318
tp2912
a(I16627
F0.007028753993610224
tp2913
a(I178756
F0.0069885641677255401
tp2914
a(I179486
F0.0069885641677255401
tp2915
a(I180215
F0.0069885641677255401
tp2916
a(I180944
F0.0069885641677255401
tp2917
a(I48773
F0.0065445026178010471
tp2918
a(I48811
F0.0065316786414108428
tp2919
a(I48859
F0.0065316786414108428
tp2920
a(I165590
F0.0059299191374663071
tp2921
a(I169204
F0.0057712486883525708
tp2922
a(I155787
F0.0046274872744099952
tp2923
a(I79172
F0.0046146746654360865
tp2924
a(I79954
F0.0046146746654360865
tp2925
a(I34827
F0.0043365134431916736
tp2926
a(I145051
F0.0042283298097251587
tp2927
a(I79260
F0.003875968992248062
tp2928
a(I79249
F0.0038729666924864447
tp2929
a(I95316
F0.0038013177901672578
tp2930
a(I95335
F0.0037945863900834811
tp2931
a(I137428
F0.0037802419354838711
tp2932
a(I137477
F0.0037802419354838711
tp2933
a(I137398
F0.0037471896077941546
tp2934
a(I137447
F0.0037471896077941546
tp2935
a(I204169
F0.0035769034236075624
tp2936
a(I204690
F0.0035769034236075624
tp2937
a(I203634
F0.0035650623885918001
tp2938
a(I219539
F0.0035398230088495575
tp2939
a(I239065
F0.0034898477157360407
tp2940
a(I177310
F0.0032718619869125522
tp2941
a(I252279
F0.0028075548749361919
tp2942
a(I158572
F0.0028017744571561991
tp2943
a(I38522
F0.0027598896044158236
tp2944
a(I223671
F0.0026572187776793621
tp2945
a(I223685
F0.0026572187776793621
tp2946
a(I223692
F0.0026572187776793621
tp2947
a(I223700
F0.0026572187776793621
tp2948
a(I223707
F0.0026572187776793621
tp2949
a(I223678
F0.002656630506973655
tp2950
a(I252278
F0.0024187975120939877
tp2951
a(I30880
F0.0021523891519586742
tp2952
a(I97597
F0.0021082220660576245
tp2953
a(I196601
F0.0020437359493153486
tp2954
a(I196576
F0.0020403999183840034
tp2955
a(I196584
F0.0020403999183840034
tp2956
a(I196592
F0.0020403999183840034
tp2957
a(I196615
F0.0020403999183840034
tp2958
atp2959
a(I69513
(lp2960
(I69513
F1
tp2961
a(I69634
F1
tp2962
a(I94445
F1
tp2963
a(I69695
F0.12132352941176471
tp2964
a(I94506
F0.12132352941176471
tp2965
a(I9541
F0.11787072243346007
tp2966
a(I51662
F0.11450381679389313
tp2967
a(I22404
F0.10915492957746478
tp2968
a(I76859
F0.10491803278688525
tp2969
a(I77517
F0.10491803278688525
tp2970
a(I8854
F0.10423452768729642
tp2971
a(I76201
F0.10423452768729642
tp2972
a(I195271
F0.10306406685236769
tp2973
a(I195297
F0.10306406685236769
tp2974
a(I221916
F0.093827160493827166
tp2975
a(I221597
F0.089805825242718448
tp2976
a(I169966
F0.088516746411483258
tp2977
a(I69693
F0.074712643678160925
tp2978
a(I94504
F0.074712643678160925
tp2979
a(I69521
F0.074679113185530915
tp2980
a(I91429
F0.067453625632377737
tp2981
a(I132775
F0.067453625632377737
tp2982
a(I170
F0.064748201438848921
tp2983
a(I253198
F0.056782334384858045
tp2984
a(I195279
F0.046994535519125684
tp2985
a(I14189
F0.035252643948296122
tp2986
a(I14188
F0.030815109343936383
tp2987
a(I215039
F0.03048780487804878
tp2988
a(I124734
F0.026275115919629059
tp2989
a(I183668
F0.025376685170499604
tp2990
a(I40594
F0.024799999999999999
tp2991
a(I246239
F0.023943661971830985
tp2992
a(I97409
F0.02375478927203065
tp2993
a(I40590
F0.023682200152788387
tp2994
a(I40596
F0.023610053313023609
tp2995
a(I165372
F0.023391812865497075
tp2996
a(I165438
F0.023047375160051217
tp2997
a(I117839
F0.020245398773006136
tp2998
a(I44148
F0.01737242128121607
tp2999
a(I32642
F0.017019319227230909
tp3000
a(I117083
F0.017019319227230909
tp3001
a(I206054
F0.016940451745379878
tp3002
a(I156343
F0.016658954187875982
tp3003
a(I198063
F0.016658954187875982
tp3004
a(I2117
F0.016633064516129031
tp3005
a(I206060
F0.016288252714708785
tp3006
a(I183680
F0.015902712815715623
tp3007
a(I2123
F0.015755785327424915
tp3008
a(I79593
F0.014763779527559055
tp3009
a(I27343
F0.014657210401891253
tp3010
a(I155787
F0.014598540145985401
tp3011
a(I79764
F0.014499758337361043
tp3012
a(I177314
F0.014254859611231102
tp3013
a(I27340
F0.014161220043572984
tp3014
a(I255988
F0.014129995962858296
tp3015
a(I162383
F0.013991163475699559
tp3016
a(I255833
F0.013894564773191663
tp3017
a(I79172
F0.013636363636363636
tp3018
a(I182516
F0.013616339607529036
tp3019
a(I256190
F0.013529645841623557
tp3020
a(I256416
F0.013524264120922832
tp3021
a(I34827
F0.012825994014536126
tp3022
a(I183664
F0.01264957264957265
tp3023
a(I79250
F0.012144212523719165
tp3024
a(I204169
F0.011947127605490595
tp3025
a(I204690
F0.011947127605490595
tp3026
a(I203634
F0.011907778059285534
tp3027
a(I95335
F0.011826874685455461
tp3028
a(I95316
F0.011592741935483871
tp3029
a(I219539
F0.011569416498993963
tp3030
a(I137428
F0.011528822055137845
tp3031
a(I137477
F0.011528822055137845
tp3032
a(I79260
F0.011481056257175661
tp3033
a(I137398
F0.011428571428571429
tp3034
a(I137447
F0.011428571428571429
tp3035
a(I206057
F0.011243611584327087
tp3036
a(I2120
F0.011235955056179775
tp3037
a(I225665
F0.010853622763273688
tp3038
a(I246237
F0.01069703243616287
tp3039
a(I2114
F0.010452961672473868
tp3040
a(I239065
F0.0097331240188383052
tp3041
a(I1211
F0.0096996245306633297
tp3042
a(I158572
F0.0095193870443464126
tp3043
a(I177310
F0.0094284030642309957
tp3044
a(I223671
F0.0088086324598106152
tp3045
a(I223685
F0.0088086324598106152
tp3046
a(I223692
F0.0088086324598106152
tp3047
a(I223700
F0.0088086324598106152
tp3048
a(I223707
F0.0088086324598106152
tp3049
a(I223678
F0.0088066930867459273
tp3050
a(I38522
F0.0082248115147361203
tp3051
a(I136920
F0.0080910240202275597
tp3052
a(I252278
F0.0079187467722499575
tp3053
a(I97597
F0.0077017328899002275
tp3054
a(I196601
F0.0073170731707317077
tp3055
a(I196576
F0.007305194805194805
tp3056
a(I196584
F0.007305194805194805
tp3057
a(I196592
F0.007305194805194805
tp3058
a(I196615
F0.007305194805194805
tp3059
a(I30880
F0.0072727272727272727
tp3060
atp3061
a(I69514
(lp3062
(I69514
F1
tp3063
a(I69635
F1
tp3064
a(I94446
F1
tp3065
a(I69522
F0.055555555555555552
tp3066
a(I644
F0.04912280701754386
tp3067
a(I56402
F0.04912280701754386
tp3068
a(I56477
F0.04912280701754386
tp3069
a(I56552
F0.04912280701754386
tp3070
a(I132709
F0.045454545454545456
tp3071
a(I94515
F0.043731778425655975
tp3072
a(I69704
F0.043243243243243246
tp3073
a(I197044
F0.041916167664670656
tp3074
a(I118051
F0.041543026706231452
tp3075
a(I5623
F0.040345821325648415
tp3076
a(I34510
F0.040345821325648415
tp3077
a(I34527
F0.040345821325648415
tp3078
a(I34544
F0.040345821325648415
tp3079
a(I2153
F0.038356164383561646
tp3080
a(I42449
F0.038356164383561646
tp3081
a(I94679
F0.038356164383561646
tp3082
a(I94760
F0.038356164383561646
tp3083
a(I94841
F0.038356164383561646
tp3084
a(I134189
F0.038356164383561646
tp3085
a(I94598
F0.037940379403794036
tp3086
a(I110213
F0.037940379403794036
tp3087
a(I28781
F0.036553524804177548
tp3088
a(I28857
F0.036553524804177548
tp3089
a(I28933
F0.036553524804177548
tp3090
a(I59662
F0.036553524804177548
tp3091
a(I643
F0.029082774049217001
tp3092
a(I46346
F0.017291066282420751
tp3093
a(I44816
F0.017045454545454544
tp3094
a(I27188
F0.016736401673640166
tp3095
a(I163665
F0.010647010647010647
tp3096
a(I40594
F0.009852216748768473
tp3097
a(I134836
F0.0096798212956068497
tp3098
a(I111916
F0.009544787077826725
tp3099
a(I2115
F0.0094562647754137114
tp3100
a(I97409
F0.0094265514532600164
tp3101
a(I40590
F0.0093970242756460463
tp3102
a(I40596
F0.0093676814988290398
tp3103
a(I256192
F0.0088255261371350986
tp3104
a(I256418
F0.0088255261371350986
tp3105
a(I101592
F0.0082872928176795577
tp3106
a(I126875
F0.0082135523613963042
tp3107
a(I112501
F0.0082023239917976762
tp3108
a(I135666
F0.0082023239917976762
tp3109
a(I84216
F0.0081911262798634813
tp3110
a(I13000
F0.0080213903743315516
tp3111
a(I3511
F0.0074257425742574254
tp3112
a(I224371
F0.0068134171907756813
tp3113
a(I225964
F0.0068134171907756813
tp3114
a(I183678
F0.0067114093959731542
tp3115
a(I69492
F0.0062827225130890054
tp3116
a(I47934
F0.0061855670103092781
tp3117
a(I156343
F0.0060947022972339428
tp3118
a(I198063
F0.0060947022972339428
tp3119
a(I32642
F0.0060549604098742429
tp3120
a(I117083
F0.0060549604098742429
tp3121
a(I27343
F0.0057609217474795969
tp3122
a(I47956
F0.0056737588652482273
tp3123
a(I47901
F0.0056550424128180964
tp3124
a(I47981
F0.0056550424128180964
tp3125
a(I79172
F0.0055376095985233045
tp3126
a(I79954
F0.0055376095985233045
tp3127
a(I225660
F0.0052738336713995942
tp3128
a(I27340
F0.005131964809384164
tp3129
a(I205592
F0.0051201260338716026
tp3130
a(I79250
F0.0049942374183634267
tp3131
a(I183664
F0.0044858523119392681
tp3132
a(I206057
F0.0044765840220385676
tp3133
a(I2120
F0.0044735030970406058
tp3134
a(I225665
F0.004140786749482402
tp3135
a(I1211
F0.004110022130888397
tp3136
a(I137398
F0.0037453183520599251
tp3137
a(I137447
F0.0037453183520599251
tp3138
a(I204169
F0.0035750766087844742
tp3139
a(I204690
F0.0035750766087844742
tp3140
a(I203634
F0.003563247645711377
tp3141
a(I95316
F0.0035452013167890607
tp3142
a(I95335
F0.0035389282103134479
tp3143
a(I219539
F0.0035380338640384128
tp3144
a(I137428
F0.0035255603122639136
tp3145
a(I137477
F0.0035255603122639136
tp3146
a(I136920
F0.0033137904664797351
tp3147
a(I30880
F0.0030146425495262705
tp3148
a(I223671
F0.0028780163825547931
tp3149
a(I223685
F0.0028780163825547931
tp3150
a(I223692
F0.0028780163825547931
tp3151
a(I223700
F0.0028780163825547931
tp3152
a(I223707
F0.0028780163825547931
tp3153
a(I223678
F0.002877379371403276
tp3154
a(I196601
F0.0028624003271314658
tp3155
a(I196576
F0.0028577260665441926
tp3156
a(I196584
F0.0028577260665441926
tp3157
a(I196592
F0.0028577260665441926
tp3158
a(I196615
F0.0028577260665441926
tp3159
a(I38522
F0.0027586206896551722
tp3160
a(I97597
F0.002635740643120717
tp3161
a(I252278
F0.0024179620034542313
tp3162
atp3163
a(I69515
(lp3164
(I69515
F1
tp3165
a(I69639
F0.8271604938271605
tp3166
a(I94450
F0.8271604938271605
tp3167
a(I110155
F0.7857142857142857
tp3168
a(I13028
F0.78106508875739644
tp3169
a(I94592
F0.76744186046511631
tp3170
a(I94673
F0.76744186046511631
tp3171
a(I94754
F0.76744186046511631
tp3172
a(I94835
F0.76744186046511631
tp3173
a(I134140
F0.76744186046511631
tp3174
a(I13036
F0.72826086956521741
tp3175
a(I13032
F0.69430051813471505
tp3176
a(I34507
F0.68181818181818177
tp3177
a(I34524
F0.68181818181818177
tp3178
a(I34541
F0.68181818181818177
tp3179
a(I56346
F0.67231638418079098
tp3180
a(I56421
F0.67231638418079098
tp3181
a(I56496
F0.67231638418079098
tp3182
a(I1552
F0.6629213483146067
tp3183
a(I118128
F0.65730337078651691
tp3184
a(I138513
F0.15649867374005305
tp3185
a(I27186
F0.1517509727626459
tp3186
a(I27188
F0.14907651715039577
tp3187
a(I69521
F0.13452914798206278
tp3188
a(I69519
F0.13213885778275475
tp3189
a(I14189
F0.13154831199068684
tp3190
a(I195279
F0.12795698924731183
tp3191
a(I92881
F0.12446808510638298
tp3192
a(I14188
F0.11793855302279485
tp3193
a(I4297
F0.11460446247464504
tp3194
a(I242282
F0.11318989710009354
tp3195
a(I113094
F0.10737628384687208
tp3196
a(I215039
F0.1049436253252385
tp3197
a(I210331
F0.10176991150442478
tp3198
a(I69501
F0.094482237339380201
tp3199
a(I11913
F0.092019543973941367
tp3200
a(I11908
F0.088636363636363638
tp3201
a(I69201
F0.088235294117647065
tp3202
a(I155
F0.085231447465099197
tp3203
a(I214873
F0.083516483516483511
tp3204
a(I6135
F0.078800557880055785
tp3205
a(I6172
F0.078800557880055785
tp3206
a(I69492
F0.062821833161688975
tp3207
a(I126355
F0.06266882766072393
tp3208
a(I121387
F0.062195781503515415
tp3209
a(I183616
F0.061998931052912883
tp3210
a(I129033
F0.061571125265392782
tp3211
a(I223937
F0.059065228556753981
tp3212
a(I224866
F0.059065228556753981
tp3213
a(I47934
F0.057575757575757579
tp3214
a(I138231
F0.057575757575757579
tp3215
a(I27343
F0.056683986773736421
tp3216
a(I32642
F0.055963302752293581
tp3217
a(I117083
F0.055963302752293581
tp3218
a(I156343
F0.055350553505535055
tp3219
a(I198063
F0.055350553505535055
tp3220
a(I155787
F0.054189435336976323
tp3221
a(I205612
F0.052897884084636616
tp3222
a(I142452
F0.052875695732838589
tp3223
a(I129028
F0.052322958953540818
tp3224
a(I225706
F0.052201543349977307
tp3225
a(I34827
F0.049488054607508533
tp3226
a(I79250
F0.047076689445709946
tp3227
a(I27340
F0.046444121915820029
tp3228
a(I79249
F0.04627151051625239
tp3229
a(I205592
F0.046213592233009707
tp3230
a(I225660
F0.045490822027134878
tp3231
a(I14179
F0.043612504824392127
tp3232
a(I246237
F0.041738530527768193
tp3233
a(I1211
F0.039799435913506737
tp3234
a(I239065
F0.037002195045468797
tp3235
a(I225665
F0.036939313984168866
tp3236
a(I252279
F0.031922979478084625
tp3237
a(I95316
F0.031666247800955012
tp3238
a(I204169
F0.031147125854646747
tp3239
a(I204690
F0.031147125854646747
tp3240
a(I95335
F0.031093279839518557
tp3241
a(I137428
F0.030976767424431676
tp3242
a(I137477
F0.030976767424431676
tp3243
a(I136920
F0.03083923154701719
tp3244
a(I203634
F0.030524722502522705
tp3245
a(I219539
F0.03005259203606311
tp3246
a(I137398
F0.029433588919119465
tp3247
a(I137447
F0.029433588919119465
tp3248
a(I158572
F0.029214004173429169
tp3249
a(I38522
F0.027606662103582022
tp3250
a(I30880
F0.026737967914438502
tp3251
a(I223671
F0.026362038664323375
tp3252
a(I223685
F0.026362038664323375
tp3253
a(I223692
F0.026362038664323375
tp3254
a(I223700
F0.026362038664323375
tp3255
a(I223707
F0.026362038664323375
tp3256
a(I223678
F0.026356248627278717
tp3257
a(I196601
F0.025604551920341393
tp3258
a(I196576
F0.02556299452221546
tp3259
a(I196584
F0.02556299452221546
tp3260
a(I196592
F0.02556299452221546
tp3261
a(I196615
F0.02556299452221546
tp3262
a(I252278
F0.024465885596140591
tp3263
a(I97597
F0.02273522210563134
tp3264
atp3265
a(I69516
(lp3266
(I69516
F1
tp3267
a(I195279
F0.11881188118811881
tp3268
a(I69504
F0.1144578313253012
tp3269
a(I69517
F0.10723514211886305
tp3270
a(I27186
F0.10309278350515463
tp3271
a(I69502
F0.10233160621761658
tp3272
a(I204702
F0.099346405228758164
tp3273
a(I14189
F0.089223638470451908
tp3274
a(I69519
F0.088987764182424919
tp3275
a(I69521
F0.086474501108647447
tp3276
a(I92881
F0.083509513742071884
tp3277
a(I14188
F0.077679449360865294
tp3278
a(I242282
F0.073215940685820199
tp3279
a(I103182
F0.06864406779661017
tp3280
a(I170503
F0.068585944115156644
tp3281
a(I215039
F0.067010309278350513
tp3282
a(I92388
F0.066453162530024021
tp3283
a(I92935
F0.066453162530024021
tp3284
a(I163665
F0.064976228209191758
tp3285
a(I69501
F0.05829596412556054
tp3286
a(I84216
F0.052387267904509281
tp3287
a(I248158
F0.051912568306010931
tp3288
a(I153858
F0.051724137931034482
tp3289
a(I246238
F0.048906048906048903
tp3290
a(I3511
F0.048883524441762222
tp3291
a(I34838
F0.047738693467336682
tp3292
a(I225661
F0.046995835812016655
tp3293
a(I225664
F0.046920821114369501
tp3294
a(I241066
F0.046312178387650088
tp3295
a(I183616
F0.046013911182450511
tp3296
a(I27343
F0.043539990534784669
tp3297
a(I122132
F0.042529378847229994
tp3298
a(I34829
F0.042492917847025496
tp3299
a(I83570
F0.041520760380190098
tp3300
a(I168561
F0.041507373020207537
tp3301
a(I69492
F0.040983606557377046
tp3302
a(I227156
F0.040953862104717471
tp3303
a(I57309
F0.040268456375838924
tp3304
a(I209494
F0.040063257775434895
tp3305
a(I225659
F0.039525691699604744
tp3306
a(I32642
F0.038901601830663615
tp3307
a(I117083
F0.038901601830663615
tp3308
a(I223937
F0.038894575230296824
tp3309
a(I224866
F0.038894575230296824
tp3310
a(I156343
F0.038674033149171269
tp3311
a(I198063
F0.038674033149171269
tp3312
a(I225706
F0.038618809631985461
tp3313
a(I155787
F0.037727272727272727
tp3314
a(I129028
F0.037421100090171328
tp3315
a(I79246
F0.037128712871287127
tp3316
a(I10926
F0.035447761194029849
tp3317
a(I149445
F0.035234121464997679
tp3318
a(I173342
F0.034671532846715328
tp3319
a(I34827
F0.033631332481907195
tp3320
a(I225660
F0.033546325878594248
tp3321
a(I27340
F0.033333333333333333
tp3322
a(I144669
F0.032905982905982907
tp3323
a(I79250
F0.032575757575757577
tp3324
a(I155502
F0.032271241830065363
tp3325
a(I115439
F0.032230703986429174
tp3326
a(I241069
F0.03098927294398093
tp3327
a(I157934
F0.030973451327433628
tp3328
a(I162383
F0.030402930402930402
tp3329
a(I205592
F0.03018575851393189
tp3330
a(I14179
F0.030069390902081727
tp3331
a(I79249
F0.029702970297029702
tp3332
a(I246237
F0.029634734665747762
tp3333
a(I145051
F0.027045769764216365
tp3334
a(I1211
F0.024314214463840397
tp3335
a(I225665
F0.024254821741671536
tp3336
a(I95316
F0.024138798089011818
tp3337
a(I239065
F0.024077548467792372
tp3338
a(I95335
F0.023839397741530741
tp3339
a(I204169
F0.023821591485048151
tp3340
a(I204690
F0.023821591485048151
tp3341
a(I137428
F0.02375
tp3342
a(I137477
F0.02375
tp3343
a(I203634
F0.023484848484848483
tp3344
a(I219539
F0.023063424417147156
tp3345
a(I177310
F0.022894041678896391
tp3346
a(I137398
F0.022783556215948488
tp3347
a(I137447
F0.022783556215948488
tp3348
a(I252279
F0.022261573488489755
tp3349
a(I136920
F0.020171457387796268
tp3350
a(I158572
F0.02013888888888889
tp3351
a(I38522
F0.018214936247723135
tp3352
a(I223671
F0.017990346643264588
tp3353
a(I223685
F0.017990346643264588
tp3354
a(I223692
F0.017990346643264588
tp3355
a(I223700
F0.017990346643264588
tp3356
a(I223707
F0.017990346643264588
tp3357
a(I223678
F0.017986400526431235
tp3358
a(I252278
F0.017549896765313145
tp3359
a(I30880
F0.017281843396628974
tp3360
a(I196601
F0.017035084161427703
tp3361
a(I196576
F0.017007491395019236
tp3362
a(I196584
F0.017007491395019236
tp3363
a(I196592
F0.017007491395019236
tp3364
a(I196615
F0.017007491395019236
tp3365
a(I97597
F0.016250218416914205
tp3366
atp3367
a(I69517
(lp3368
(I69517
F1
tp3369
a(I51631
F0.35686274509803922
tp3370
a(I138513
F0.354382657869934
tp3371
a(I195279
F0.31755102040816324
tp3372
a(I69501
F0.21778584392014519
tp3373
a(I183616
F0.17064220183486239
tp3374
a(I225661
F0.1685671789786812
tp3375
a(I121387
F0.16382880809940176
tp3376
a(I27343
F0.15976821192052981
tp3377
a(I34825
F0.15798922800718132
tp3378
a(I191061
F0.15798462852263023
tp3379
a(I227156
F0.15367581930912311
tp3380
a(I223937
F0.15067893123083662
tp3381
a(I224866
F0.15067893123083662
tp3382
a(I69492
F0.15054704595185994
tp3383
a(I10926
F0.15026541445487954
tp3384
a(I79593
F0.14683544303797469
tp3385
a(I79246
F0.14553191489361703
tp3386
a(I79764
F0.14553014553014554
tp3387
a(I225659
F0.14497668503603223
tp3388
a(I183680
F0.14401294498381878
tp3389
a(I225706
F0.1426872770511296
tp3390
a(I205612
F0.1416
tp3391
a(I142452
F0.14084507042253522
tp3392
a(I129028
F0.14049586776859505
tp3393
a(I47956
F0.14044265593561367
tp3394
a(I205464
F0.13986295848448208
tp3395
a(I205513
F0.13986295848448208
tp3396
a(I205558
F0.13986295848448208
tp3397
a(I205657
F0.13986295848448208
tp3398
a(I34827
F0.13935969868173259
tp3399
a(I47901
F0.13913392141138733
tp3400
a(I47981
F0.13913392141138733
tp3401
a(I79250
F0.13879369431117203
tp3402
a(I173342
F0.13871224165341811
tp3403
a(I79172
F0.13846153846153847
tp3404
a(I79954
F0.13846153846153847
tp3405
a(I32642
F0.13769841269841271
tp3406
a(I117083
F0.13769841269841271
tp3407
a(I156343
F0.13755980861244019
tp3408
a(I198063
F0.13755980861244019
tp3409
a(I149445
F0.13563402889245585
tp3410
a(I241069
F0.13513513513513514
tp3411
a(I27340
F0.13453947368421051
tp3412
a(I155787
F0.13385826771653545
tp3413
a(I79249
F0.13280713795470145
tp3414
a(I205592
F0.13277719847062913
tp3415
a(I79260
F0.12863496407800204
tp3416
a(I135441
F0.12716354645001765
tp3417
a(I157934
F0.12655971479500891
tp3418
a(I183664
F0.12605042016806722
tp3419
a(I255833
F0.12598707824838479
tp3420
a(I246237
F0.12558869701726844
tp3421
a(I182516
F0.12495587716201906
tp3422
a(I256190
F0.12464887640449439
tp3423
a(I256416
F0.1246051246051246
tp3424
a(I255988
F0.12460063897763578
tp3425
a(I225660
F0.12424991175432404
tp3426
a(I155502
F0.12333692916217188
tp3427
a(I162383
F0.12318840579710146
tp3428
a(I14179
F0.1187542778918549
tp3429
a(I145051
F0.1184789440603394
tp3430
a(I239065
F0.1152073732718894
tp3431
a(I146160
F0.1137455943607818
tp3432
a(I1211
F0.11260744985673353
tp3433
a(I95316
F0.11058263971462545
tp3434
a(I204169
F0.11039272030651341
tp3435
a(I204690
F0.11039272030651341
tp3436
a(I95335
F0.1098718557190318
tp3437
a(I203634
F0.10952040085898354
tp3438
a(I137428
F0.10948214707968787
tp3439
a(I137477
F0.10948214707968787
tp3440
a(I219539
F0.10853080568720379
tp3441
a(I2120
F0.10852950168144299
tp3442
a(I177310
F0.10833559598153679
tp3443
a(I206057
F0.10757946210268948
tp3444
a(I206051
F0.106886880648177
tp3445
a(I2114
F0.10675381263616558
tp3446
a(I225665
F0.10655516590234691
tp3447
a(I2116
F0.10630914826498422
tp3448
a(I137398
F0.10624853732740464
tp3449
a(I137447
F0.10624853732740464
tp3450
a(I252279
F0.10481181515007146
tp3451
a(I158572
F0.100990099009901
tp3452
a(I136920
F0.09867486985328916
tp3453
a(I38522
F0.091280947255113029
tp3454
a(I223700
F0.089679567207657102
tp3455
a(I223671
F0.089452881214894947
tp3456
a(I223685
F0.089452881214894947
tp3457
a(I223692
F0.089452881214894947
tp3458
a(I223707
F0.089452881214894947
tp3459
a(I223678
F0.089434276206322799
tp3460
a(I30880
F0.089118960617133577
tp3461
a(I252278
F0.088250041785057659
tp3462
a(I196576
F0.085990338164251209
tp3463
a(I196584
F0.085990338164251209
tp3464
a(I196592
F0.085990338164251209
tp3465
a(I196615
F0.085990338164251209
tp3466
a(I196601
F0.085913312693498459
tp3467
a(I97597
F0.07926624032312353
tp3468
atp3469
a(I69518
(lp3470
(I69518
F1
tp3471
a(I69677
F0.75
tp3472
a(I94488
F0.75
tp3473
a(I227158
F0.050777202072538857
tp3474
a(I90588
F0.050526315789473683
tp3475
a(I242282
F0.045977011494252873
tp3476
a(I92388
F0.040262941659819231
tp3477
a(I92935
F0.040262941659819231
tp3478
a(I11913
F0.040167364016736401
tp3479
a(I134772
F0.039812646370023422
tp3480
a(I69206
F0.038772213247172858
tp3481
a(I104061
F0.038138825324180017
tp3482
a(I34836
F0.038102643856920686
tp3483
a(I38760
F0.037177541729893779
tp3484
a(I69202
F0.036753445635528334
tp3485
a(I183549
F0.03669724770642202
tp3486
a(I11909
F0.036669213139801378
tp3487
a(I84163
F0.036613272311212815
tp3488
a(I153807
F0.036613272311212815
tp3489
a(I90585
F0.035928143712574849
tp3490
a(I210332
F0.035346097201767304
tp3491
a(I191062
F0.034812286689419797
tp3492
a(I34837
F0.034090909090909088
tp3493
a(I51352
F0.03238598810310641
tp3494
a(I196235
F0.031786395422759059
tp3495
a(I213753
F0.031767041694242222
tp3496
a(I14475
F0.031036623215394164
tp3497
a(I237031
F0.030883261272390366
tp3498
a(I225661
F0.029787234042553193
tp3499
a(I225664
F0.029341317365269463
tp3500
a(I227157
F0.029243119266055047
tp3501
a(I196238
F0.02880184331797235
tp3502
a(I26147
F0.028457598178713718
tp3503
a(I122132
F0.028032036613272311
tp3504
a(I196241
F0.027968036529680364
tp3505
a(I196225
F0.026746724890829694
tp3506
a(I196249
F0.026746724890829694
tp3507
a(I140870
F0.026595744680851064
tp3508
a(I168944
F0.02650081124932396
tp3509
a(I129033
F0.026443604964921749
tp3510
a(I209494
F0.026372443487621099
tp3511
a(I57309
F0.026329647182727751
tp3512
a(I69492
F0.026096033402922755
tp3513
a(I191061
F0.026039058587881823
tp3514
a(I173652
F0.025471217524197658
tp3515
a(I227156
F0.025343189017951427
tp3516
a(I19395
F0.024923702950152594
tp3517
a(I79246
F0.024747474747474747
tp3518
a(I47934
F0.024640657084188913
tp3519
a(I138231
F0.024640657084188913
tp3520
a(I155787
F0.024491682070240297
tp3521
a(I83570
F0.024390243902439025
tp3522
a(I225659
F0.024120603015075376
tp3523
a(I142452
F0.023080546396608573
tp3524
a(I225706
F0.023041474654377881
tp3525
a(I205612
F0.022875816993464051
tp3526
a(I205464
F0.022673594709494569
tp3527
a(I205513
F0.022673594709494569
tp3528
a(I205558
F0.022673594709494569
tp3529
a(I205657
F0.022673594709494569
tp3530
a(I149445
F0.022652194431335537
tp3531
a(I47956
F0.022609514837494113
tp3532
a(I47901
F0.022535211267605635
tp3533
a(I47981
F0.022535211267605635
tp3534
a(I99685
F0.02241537053979872
tp3535
a(I144669
F0.022173913043478259
tp3536
a(I129028
F0.02194787379972565
tp3537
a(I115439
F0.021129797326433809
tp3538
a(I34827
F0.020743301642178046
tp3539
a(I155502
F0.02073828287017835
tp3540
a(I79250
F0.020721412125863391
tp3541
a(I79249
F0.020108275328692964
tp3542
a(I196257
F0.020049099836333878
tp3543
a(I225660
F0.01981399110392236
tp3544
a(I241069
F0.019758064516129031
tp3545
a(I205592
F0.019638648860958365
tp3546
a(I14179
F0.019163081736409855
tp3547
a(I79260
F0.018547140649149921
tp3548
a(I146160
F0.01772793053545586
tp3549
a(I246237
F0.017409470752089137
tp3550
a(I145051
F0.016853932584269662
tp3551
a(I1211
F0.015452538631346579
tp3552
a(I225665
F0.015352819604369648
tp3553
a(I239065
F0.01518506801645049
tp3554
a(I177310
F0.014239098190447939
tp3555
a(I204169
F0.013258541560428353
tp3556
a(I204690
F0.013258541560428353
tp3557
a(I95316
F0.013147914032869785
tp3558
a(I252279
F0.012996941896024464
tp3559
a(I203634
F0.012957317073170731
tp3560
a(I95335
F0.012869038607115822
tp3561
a(I219539
F0.012865792129162463
tp3562
a(I137428
F0.01282051282051282
tp3563
a(I137477
F0.01282051282051282
tp3564
a(I136920
F0.012465021622996692
tp3565
a(I137398
F0.012204234122042341
tp3566
a(I137447
F0.012204234122042341
tp3567
a(I158572
F0.012124038237351364
tp3568
a(I97597
F0.009480337078651686
tp3569
a(I252278
F0.0091458153580672996
tp3570
atp3571
a(I69519
(lp3572
(I69519
F1
tp3573
a(I110196
F0.61241217798594849
tp3574
a(I69686
F0.61104582843713273
tp3575
a(I94497
F0.61104582843713273
tp3576
a(I95298
F0.60915492957746475
tp3577
a(I95300
F0.60915492957746475
tp3578
a(I95303
F0.60915492957746475
tp3579
a(I59659
F0.60844079718640098
tp3580
a(I162848
F0.2175609756097561
tp3581
a(I69492
F0.20604997807978956
tp3582
a(I227156
F0.20026408450704225
tp3583
a(I129033
F0.19848349687778769
tp3584
a(I223937
F0.19782135076252724
tp3585
a(I224866
F0.19782135076252724
tp3586
a(I83570
F0.19649722340879966
tp3587
a(I47901
F0.19427650141072147
tp3588
a(I47981
F0.19427650141072147
tp3589
a(I142452
F0.194264943457189
tp3590
a(I205612
F0.1942215088282504
tp3591
a(I47934
F0.19407471017604122
tp3592
a(I138231
F0.19407471017604122
tp3593
a(I225659
F0.19365750528541226
tp3594
a(I224371
F0.1935763888888889
tp3595
a(I225964
F0.1935763888888889
tp3596
a(I47956
F0.19337908760597497
tp3597
a(I205464
F0.19288313788920339
tp3598
a(I205513
F0.19288313788920339
tp3599
a(I205558
F0.19288313788920339
tp3600
a(I205657
F0.19288313788920339
tp3601
a(I173652
F0.18962585034013604
tp3602
a(I183680
F0.18951612903225806
tp3603
a(I191061
F0.18428750522356874
tp3604
a(I32642
F0.18282548476454294
tp3605
a(I117083
F0.18282548476454294
tp3606
a(I156343
F0.18243243243243243
tp3607
a(I198063
F0.18243243243243243
tp3608
a(I27343
F0.1804602341542188
tp3609
a(I10926
F0.18032128514056225
tp3610
a(I205592
F0.17969295184926729
tp3611
a(I225706
F0.17889368379756768
tp3612
a(I155787
F0.17817896389324961
tp3613
a(I79250
F0.17737525632262474
tp3614
a(I225660
F0.17477797513321491
tp3615
a(I129028
F0.17281553398058253
tp3616
a(I34827
F0.17075892857142858
tp3617
a(I79172
F0.16997277323998444
tp3618
a(I79954
F0.16997277323998444
tp3619
a(I79249
F0.167462482946794
tp3620
a(I27340
F0.16737495913697287
tp3621
a(I182516
F0.16555125044029587
tp3622
a(I256190
F0.16543988783736419
tp3623
a(I255988
F0.16542685086787107
tp3624
a(I256416
F0.16538192011212333
tp3625
a(I255833
F0.16517697533071149
tp3626
a(I241069
F0.16403231471724622
tp3627
a(I155502
F0.16135957066189624
tp3628
a(I196257
F0.16035398230088496
tp3629
a(I135441
F0.1583916083916084
tp3630
a(I183664
F0.15574783683559951
tp3631
a(I246237
F0.15554862842892769
tp3632
a(I239065
F0.15366839976891969
tp3633
a(I79260
F0.15340525960890089
tp3634
a(I1211
F0.15251798561151078
tp3635
a(I2116
F0.14587938111777707
tp3636
a(I206053
F0.14565560821484991
tp3637
a(I225665
F0.14502575223637842
tp3638
a(I162383
F0.14452365521710953
tp3639
a(I145051
F0.14245810055865921
tp3640
a(I2120
F0.14233465406888143
tp3641
a(I206057
F0.1420731707317073
tp3642
a(I204169
F0.14124700239808152
tp3643
a(I204690
F0.14124700239808152
tp3644
a(I95316
F0.14095238095238094
tp3645
a(I146160
F0.14077362079898542
tp3646
a(I203634
F0.14026284348864995
tp3647
a(I95335
F0.14017581373247803
tp3648
a(I137428
F0.13940828402366864
tp3649
a(I137477
F0.13940828402366864
tp3650
a(I219539
F0.13933064324709232
tp3651
a(I252279
F0.13902847571189281
tp3652
a(I137398
F0.13612933458294282
tp3653
a(I137447
F0.13612933458294282
tp3654
a(I177310
F0.13376483279395901
tp3655
a(I158572
F0.12190851389800832
tp3656
a(I38522
F0.12044031944744227
tp3657
a(I136920
F0.11697140178152836
tp3658
a(I223671
F0.11669097728693478
tp3659
a(I223685
F0.11669097728693478
tp3660
a(I223692
F0.11669097728693478
tp3661
a(I223700
F0.11669097728693478
tp3662
a(I223707
F0.11669097728693478
tp3663
a(I223678
F0.11666666666666667
tp3664
a(I30880
F0.1152439024390244
tp3665
a(I196576
F0.11192873741285825
tp3666
a(I196584
F0.11192873741285825
tp3667
a(I196592
F0.11192873741285825
tp3668
a(I196615
F0.11192873741285825
tp3669
a(I196601
F0.11188675586581345
tp3670
a(I252278
F0.10054753608760578
tp3671
a(I97597
F0.098134767266005715
tp3672
atp3673
a(I69520
(lp3674
(I69520
F1
tp3675
a(I69689
F0.96391752577319589
tp3676
a(I94500
F0.96391752577319589
tp3677
a(I110199
F0.96054888507718694
tp3678
a(I131793
F0.96054888507718694
tp3679
a(I134186
F0.95972579263067692
tp3680
a(I59656
F0.93470790378006874
tp3681
a(I82400
F0.9251247920133111
tp3682
a(I92388
F0.85770750988142297
tp3683
a(I92935
F0.85770750988142297
tp3684
a(I149669
F0.25381165919282511
tp3685
a(I3511
F0.25215810995002269
tp3686
a(I121387
F0.24735729386892177
tp3687
a(I177311
F0.24610591900311526
tp3688
a(I209494
F0.24159402241594022
tp3689
a(I140870
F0.23221586263287
tp3690
a(I9372
F0.22998489425981872
tp3691
a(I115365
F0.22981846272692158
tp3692
a(I120583
F0.22769230769230769
tp3693
a(I227156
F0.22708840227088403
tp3694
a(I183680
F0.22650056625141562
tp3695
a(I69492
F0.22588424437299034
tp3696
a(I34825
F0.22439820481436148
tp3697
a(I129033
F0.22427224272242721
tp3698
a(I10926
F0.22327162825840574
tp3699
a(I99685
F0.2206693637366679
tp3700
a(I83570
F0.21759622937941869
tp3701
a(I79246
F0.21696637998436277
tp3702
a(I225659
F0.2166796570537802
tp3703
a(I79764
F0.21546115575966321
tp3704
a(I191061
F0.21434108527131782
tp3705
a(I79593
F0.21431334622823983
tp3706
a(I149445
F0.21396564600448095
tp3707
a(I79172
F0.21357798165137615
tp3708
a(I79954
F0.21357798165137615
tp3709
a(I177314
F0.2132483173928445
tp3710
a(I241069
F0.20876547340247575
tp3711
a(I225706
F0.2080438756855576
tp3712
a(I129028
F0.20647037440930571
tp3713
a(I255833
F0.20487639688452422
tp3714
a(I255988
F0.20476670023497817
tp3715
a(I182516
F0.20427236315086783
tp3716
a(I256190
F0.20398671096345514
tp3717
a(I256416
F0.20391896379940219
tp3718
a(I47901
F0.2028023598820059
tp3719
a(I47981
F0.2028023598820059
tp3720
a(I205612
F0.20227606461086636
tp3721
a(I173342
F0.20102339181286549
tp3722
a(I79260
F0.20077469335054873
tp3723
a(I135441
F0.19960146130853537
tp3724
a(I34827
F0.19944309084580578
tp3725
a(I225660
F0.19840478564307079
tp3726
a(I183664
F0.19816078315040048
tp3727
a(I79250
F0.19769673704414586
tp3728
a(I79249
F0.19639987142397944
tp3729
a(I205592
F0.19402985074626866
tp3730
a(I155502
F0.19279946164199194
tp3731
a(I239065
F0.19084604715672676
tp3732
a(I157934
F0.1893058784456991
tp3733
a(I162383
F0.18864412038473471
tp3734
a(I177310
F0.18687401159725883
tp3735
a(I246237
F0.18661137440758294
tp3736
a(I145051
F0.18558236520703009
tp3737
a(I196257
F0.18522200132538105
tp3738
a(I14179
F0.18383060635226178
tp3739
a(I1211
F0.17885510818953712
tp3740
a(I146160
F0.17556561085972849
tp3741
a(I95316
F0.1754791041329947
tp3742
a(I95335
F0.17492509794883615
tp3743
a(I204169
F0.17436730903180869
tp3744
a(I204690
F0.17436730903180869
tp3745
a(I137428
F0.17405281285878302
tp3746
a(I137477
F0.17405281285878302
tp3747
a(I203634
F0.17357093265447812
tp3748
a(I219539
F0.17218390804597702
tp3749
a(I137398
F0.17186432961529707
tp3750
a(I137447
F0.17186432961529707
tp3751
a(I252279
F0.16917032586087358
tp3752
a(I27340
F0.16883116883116883
tp3753
a(I225665
F0.16722580645161289
tp3754
a(I136920
F0.16146788990825689
tp3755
a(I2116
F0.16144293317563571
tp3756
a(I2120
F0.15959885386819483
tp3757
a(I206057
F0.1593579822298653
tp3758
a(I158572
F0.15671641791044777
tp3759
a(I38522
F0.15311909262759923
tp3760
a(I223671
F0.14976630766104451
tp3761
a(I223685
F0.14976630766104451
tp3762
a(I223692
F0.14976630766104451
tp3763
a(I223700
F0.14976630766104451
tp3764
a(I223707
F0.14976630766104451
tp3765
a(I223678
F0.14973587972368957
tp3766
a(I30880
F0.14733293674400158
tp3767
a(I196576
F0.14369556985990156
tp3768
a(I196584
F0.14369556985990156
tp3769
a(I196592
F0.14369556985990156
tp3770
a(I196615
F0.14369556985990156
tp3771
a(I196601
F0.14326321773735076
tp3772
a(I252278
F0.13360588716271463
tp3773
a(I97597
F0.13164431197218082
tp3774
atp3775
a(I69521
(lp3776
(I69521
F1
tp3777
a(I91429
F0.58651685393258424
tp3778
a(I132775
F0.58651685393258424
tp3779
a(I69693
F0.57092614302461897
tp3780
a(I94504
F0.57092614302461897
tp3781
a(I170
F0.54044943820224722
tp3782
a(I215039
F0.34845360824742266
tp3783
a(I103182
F0.23349937733499376
tp3784
a(I170503
F0.23335407591785937
tp3785
a(I69501
F0.21640091116173121
tp3786
a(I183616
F0.18101545253863136
tp3787
a(I27343
F0.17422721798474508
tp3788
a(I121387
F0.16879682679594535
tp3789
a(I69492
F0.16659601526070369
tp3790
a(I225373
F0.16476774758983348
tp3791
a(I223937
F0.16476069462092333
tp3792
a(I224866
F0.16476069462092333
tp3793
a(I156343
F0.16431924882629109
tp3794
a(I198063
F0.16431924882629109
tp3795
a(I32642
F0.16342412451361868
tp3796
a(I117083
F0.16342412451361868
tp3797
a(I27340
F0.16313904265711496
tp3798
a(I224371
F0.16173986486486486
tp3799
a(I225964
F0.16173986486486486
tp3800
a(I141075
F0.16089002995293111
tp3801
a(I141441
F0.16089002995293111
tp3802
a(I191061
F0.15667074663402691
tp3803
a(I183680
F0.15589502546024286
tp3804
a(I225659
F0.15359477124183007
tp3805
a(I129028
F0.15041888804265041
tp3806
a(I225706
F0.14952198852772466
tp3807
a(I205612
F0.14809101426918628
tp3808
a(I149445
F0.14768752429071122
tp3809
a(I79250
F0.14675540765391015
tp3810
a(I10926
F0.14664586583463338
tp3811
a(I142452
F0.14651162790697675
tp3812
a(I205464
F0.14557453416149069
tp3813
a(I205513
F0.14557453416149069
tp3814
a(I205558
F0.14557453416149069
tp3815
a(I205657
F0.14557453416149069
tp3816
a(I79172
F0.14541301865245526
tp3817
a(I79954
F0.14541301865245526
tp3818
a(I47956
F0.14523625096824166
tp3819
a(I155787
F0.14487228364468166
tp3820
a(I47901
F0.14484356894553882
tp3821
a(I47981
F0.14484356894553882
tp3822
a(I79249
F0.14285714285714285
tp3823
a(I225660
F0.14187090093199861
tp3824
a(I205592
F0.14179608372721134
tp3825
a(I34827
F0.13934129569308723
tp3826
a(I256190
F0.13709401709401708
tp3827
a(I256416
F0.13704716336295283
tp3828
a(I182516
F0.13667582417582416
tp3829
a(I79260
F0.13612217795484727
tp3830
a(I241069
F0.13605209047292666
tp3831
a(I255988
F0.1360027614773904
tp3832
a(I255833
F0.13588850174216027
tp3833
a(I183664
F0.13535660091047041
tp3834
a(I246237
F0.12911084043848964
tp3835
a(I162383
F0.12623525661459994
tp3836
a(I1211
F0.12622996907506326
tp3837
a(I206053
F0.12604781123874573
tp3838
a(I2116
F0.12593052109181141
tp3839
a(I14179
F0.12578825091271159
tp3840
a(I204169
F0.12211221122112212
tp3841
a(I204690
F0.12211221122112212
tp3842
a(I239065
F0.12187587756248244
tp3843
a(I95316
F0.12169435993447227
tp3844
a(I203634
F0.12121212121212122
tp3845
a(I95335
F0.12097150864082204
tp3846
a(I137428
F0.12028850628199163
tp3847
a(I137477
F0.12028850628199163
tp3848
a(I219539
F0.12015865608959403
tp3849
a(I2120
F0.12010755900806692
tp3850
a(I206051
F0.12008533983541603
tp3851
a(I2114
F0.11993911719939117
tp3852
a(I206057
F0.11984459055588763
tp3853
a(I225665
F0.11950185479597245
tp3854
a(I145051
F0.11914893617021277
tp3855
a(I137398
F0.11571198527720267
tp3856
a(I137447
F0.11571198527720267
tp3857
a(I252279
F0.11420547624619705
tp3858
a(I177310
F0.11361228813559322
tp3859
a(I158572
F0.10495689655172413
tp3860
a(I136920
F0.10196531791907515
tp3861
a(I252278
F0.096166556510244541
tp3862
a(I38522
F0.095821021528070913
tp3863
a(I223700
F0.094771241830065356
tp3864
a(I223671
F0.09454768225444149
tp3865
a(I223685
F0.09454768225444149
tp3866
a(I223692
F0.09454768225444149
tp3867
a(I223707
F0.09454768225444149
tp3868
a(I30880
F0.094535301156761065
tp3869
a(I223678
F0.094528378930175586
tp3870
a(I196576
F0.092032705837611709
tp3871
a(I196584
F0.092032705837611709
tp3872
a(I196592
F0.092032705837611709
tp3873
a(I196615
F0.092032705837611709
tp3874
a(I196601
F0.09196496572734196
tp3875
a(I97597
F0.086075108009305415
tp3876
atp3877
a(I69522
(lp3878
(I69522
F1
tp3879
a(I197044
F0.95043731778425655
tp3880
a(I94515
F0.93999999999999995
tp3881
a(I118051
F0.88235294117647056
tp3882
a(I69704
F0.87533156498673736
tp3883
a(I110213
F0.87234042553191493
tp3884
a(I5623
F0.86849315068493149
tp3885
a(I34510
F0.86849315068493149
tp3886
a(I34527
F0.86849315068493149
tp3887
a(I34544
F0.86849315068493149
tp3888
a(I2153
F0.8666666666666667
tp3889
a(I42449
F0.8666666666666667
tp3890
a(I94679
F0.8666666666666667
tp3891
a(I94760
F0.8666666666666667
tp3892
a(I94841
F0.8666666666666667
tp3893
a(I134189
F0.8666666666666667
tp3894
a(I132709
F0.86376811594202896
tp3895
a(I94598
F0.85751978891820579
tp3896
a(I28781
F0.83163265306122447
tp3897
a(I28857
F0.83163265306122447
tp3898
a(I28933
F0.83163265306122447
tp3899
a(I59662
F0.83163265306122447
tp3900
a(I644
F0.7174515235457064
tp3901
a(I56402
F0.7174515235457064
tp3902
a(I56477
F0.7174515235457064
tp3903
a(I56552
F0.7174515235457064
tp3904
a(I242282
F0.21365248226950354
tp3905
a(I183616
F0.12695109261186263
tp3906
a(I225373
F0.12454212454212454
tp3907
a(I223937
F0.12274549098196393
tp3908
a(I224866
F0.12274549098196393
tp3909
a(I141075
F0.12162849872773537
tp3910
a(I141441
F0.12162849872773537
tp3911
a(I224371
F0.121
tp3912
a(I225964
F0.121
tp3913
a(I69492
F0.12093953023488256
tp3914
a(I27343
F0.11490539916935856
tp3915
a(I156343
F0.11076091850517784
tp3916
a(I198063
F0.11076091850517784
tp3917
a(I32642
F0.11056401074306177
tp3918
a(I117083
F0.11056401074306177
tp3919
a(I205612
F0.10921348314606742
tp3920
a(I142452
F0.10914855072463768
tp3921
a(I47901
F0.10835214446952596
tp3922
a(I47981
F0.10835214446952596
tp3923
a(I47956
F0.10819375282933454
tp3924
a(I205464
F0.10798548094373865
tp3925
a(I205513
F0.10798548094373865
tp3926
a(I205558
F0.10798548094373865
tp3927
a(I205657
F0.10798548094373865
tp3928
a(I225706
F0.10633584404076207
tp3929
a(I129028
F0.10514738231412231
tp3930
a(I225660
F0.10023584905660378
tp3931
a(I27340
F0.097063037249283668
tp3932
a(I79250
F0.096713965646004485
tp3933
a(I205592
F0.096146508966043501
tp3934
a(I241069
F0.095238095238095233
tp3935
a(I79249
F0.094219219219219219
tp3936
a(I182516
F0.093713393205778997
tp3937
a(I256190
F0.093131548311990692
tp3938
a(I256416
F0.093095422808378583
tp3939
a(I246237
F0.087355540448674371
tp3940
a(I206053
F0.082638888888888887
tp3941
a(I2116
F0.082177531206657425
tp3942
a(I183664
F0.080936454849498324
tp3943
a(I145051
F0.080722070844686647
tp3944
a(I206057
F0.080053368912608405
tp3945
a(I2120
F0.080000000000000002
tp3946
a(I1211
F0.078655151141270821
tp3947
a(I239065
F0.078255490256727497
tp3948
a(I225665
F0.077413743113946068
tp3949
a(I177310
F0.072859216255442671
tp3950
a(I252279
F0.068073348404923392
tp3951
a(I95316
F0.06726457399103139
tp3952
a(I204169
F0.067018072289156627
tp3953
a(I204690
F0.067018072289156627
tp3954
a(I95335
F0.066882148184982601
tp3955
a(I203634
F0.066533266633316657
tp3956
a(I137428
F0.066369489846458643
tp3957
a(I137477
F0.066369489846458643
tp3958
a(I219539
F0.06633540372670807
tp3959
a(I137398
F0.064753495217071383
tp3960
a(I137447
F0.064753495217071383
tp3961
a(I136920
F0.063186813186813184
tp3962
a(I38522
F0.060461956521739128
tp3963
a(I158572
F0.059903603396832684
tp3964
a(I30880
F0.058460884353741499
tp3965
a(I223671
F0.058246073298429318
tp3966
a(I223685
F0.058246073298429318
tp3967
a(I223692
F0.058246073298429318
tp3968
a(I223700
F0.058246073298429318
tp3969
a(I223707
F0.058246073298429318
tp3970
a(I223678
F0.058233369683751361
tp3971
a(I196601
F0.056184316895715437
tp3972
a(I196576
F0.056093623890234062
tp3973
a(I196584
F0.056093623890234062
tp3974
a(I196592
F0.056093623890234062
tp3975
a(I196615
F0.056093623890234062
tp3976
a(I252278
F0.049520219328307059
tp3977
a(I97597
F0.048173913043478261
tp3978
atp3979
a.